Component: ARM Compiler 5.06 update 6 (build 750) Tool: armlink [4d35ed]

==============================================================================

Section Cross References

    main.o(i.main) refers to new.o(i._Znwj) for operator new(unsigned)
    main.o(i.main) refers to delay.o(i._ZN5DELAYC1Ev) for DELAY::DELAY()
    main.o(i.main) refers to port.o(i._ZN9PortMapIOC1EP16MDR_PORT_TypeDeft) for PortMapIO::PortMapIO(MDR_PORT_TypeDef*, unsigned short)
    main.o(i.main) refers to spi.o(i._ZN3SPIC1EP15MDR_SSP_TypeDefP16MDR_PORT_TypeDefttth17PORT_FUNC_TypeDef) for SPI::SPI(MDR_SSP_TypeDef*, MDR_PORT_TypeDef*, unsigned short, unsigned short, unsigned short, unsigned char, PORT_FUNC_TypeDef)
    main.o(i.main) refers to w25qxx.o(i.W25qxx_Init) for W25qxx_Init
    main.o(i.main) refers to w25qxx.o(i.W25qxx_ResetChip) for W25qxx_ResetChip
    main.o(i.main) refers to w25qxx.o(i.W25qxx_PageToSector) for W25qxx_PageToSector
    main.o(i.main) refers to w25qxx.o(i.W25qxx_EraseSector) for W25qxx_EraseSector
    main.o(i.main) refers to w25qxx.o(i.W25qxx_WritePage) for W25qxx_WritePage
    main.o(i.main) refers to w25qxx.o(i.W25qxx_ReadPage) for W25qxx_ReadPage
    main.o(i.main) refers to main.o(.data) for pause
    main.o(i.main) refers to main.o(.bss) for buf1
    main.o(.ARM.exidx) refers to main.o(i.main) for i.main
    relay.o(i._ZN5RELAY2onEv) refers to port.o(i._ZN9PortMapIO7setHighEv) for PortMapIO::setHigh()
    relay.o(i._ZN5RELAY3offEv) refers to port.o(i._ZN9PortMapIO6setLowEv) for PortMapIO::setLow()
    relay.o(i._ZN5RELAYC1EP16MDR_PORT_TypeDeft) refers to port.o(i._ZN9PortMapIOC1EP16MDR_PORT_TypeDeft) for PortMapIO::PortMapIO(MDR_PORT_TypeDef*, unsigned short)
    relay.o(.ARM.exidx) refers to relay.o(i._ZN5RELAYC1EP16MDR_PORT_TypeDeft) for i._ZN5RELAYC1EP16MDR_PORT_TypeDeft
    relay.o(.ARM.exidx) refers to relay.o(i._ZN5RELAY2onEv) for i._ZN5RELAY2onEv
    relay.o(.ARM.exidx) refers to relay.o(i._ZN5RELAY3offEv) for i._ZN5RELAY3offEv
    relay.o(.ARM.exidx) refers to relay.o(i._ZN5RELAY9getStatusEv) for i._ZN5RELAY9getStatusEv
    spi.o(i._ZN3SPI15write_then_readEPhjS0_jh) refers to spi.o(i._ZN3SPI8transmitEPh) for SPI::transmit(unsigned char*)
    spi.o(i._ZN3SPI4initEh) refers to mdr32f9qx_rst_clk.o(i.RST_CLK_PCLKcmd) for RST_CLK_PCLKcmd
    spi.o(i._ZN3SPI4initEh) refers to mdr32f9qx_ssp.o(i.SSP_BRGInit) for SSP_BRGInit
    spi.o(i._ZN3SPI4initEh) refers to mdr32f9qx_ssp.o(i.SSP_StructInit) for SSP_StructInit
    spi.o(i._ZN3SPI4initEh) refers to mdr32f9qx_ssp.o(i.SSP_Init) for SSP_Init
    spi.o(i._ZN3SPI4initEh) refers to mdr32f9qx_ssp.o(i.SSP_Cmd) for SSP_Cmd
    spi.o(i._ZN3SPI5writeEPhj) refers to spi.o(i._ZN3SPI8transmitEPh) for SPI::transmit(unsigned char*)
    spi.o(i._ZN3SPI8initPortEP16MDR_PORT_TypeDefttt17PORT_FUNC_TypeDef) refers to new.o(i._Znwj) for operator new(unsigned)
    spi.o(i._ZN3SPI8initPortEP16MDR_PORT_TypeDefttt17PORT_FUNC_TypeDef) refers to port.o(i._ZN9PortMapIOC1EP16MDR_PORT_TypeDeft15PORT_OE_TypeDef20PORT_PULL_UP_TypeDef22PORT_PULL_DOWN_TypeDef19PORT_PD_SHM_TypeDef15PORT_PD_TypeDef17PORT_GFEN_TypeDef17PORT_FUNC_TypeDef18PORT_SPEED_TypeDef17PORT_MODE_TypeDef) for PortMapIO::PortMapIO(MDR_PORT_TypeDef*, unsigned short, PORT_OE_TypeDef, PORT_PULL_UP_TypeDef, PORT_PULL_DOWN_TypeDef, PORT_PD_SHM_TypeDef, PORT_PD_TypeDef, PORT_GFEN_TypeDef, PORT_FUNC_TypeDef, PORT_SPEED_TypeDef, PORT_MODE_TypeDef)
    spi.o(i._ZN3SPI8transmitEPh) refers to mdr32f9qx_ssp.o(i.SSP_SendData) for SSP_SendData
    spi.o(i._ZN3SPI8transmitEPh) refers to mdr32f9qx_ssp.o(i.SSP_GetFlagStatus) for SSP_GetFlagStatus
    spi.o(i._ZN3SPI8transmitEPh) refers to mdr32f9qx_ssp.o(i.SSP_ReceiveData) for SSP_ReceiveData
    spi.o(i._ZN3SPIC1EP15MDR_SSP_TypeDef) refers to port.o(i._ZN9PortMapIOC1Ev) for PortMapIO::PortMapIO()
    spi.o(i._ZN3SPIC1EP15MDR_SSP_TypeDef) refers to spi.o(i._ZN3SPI4initEh) for SPI::init(unsigned char)
    spi.o(i._ZN3SPIC1EP15MDR_SSP_TypeDefP16MDR_PORT_TypeDefttth17PORT_FUNC_TypeDef) refers to port.o(i._ZN9PortMapIOC1Ev) for PortMapIO::PortMapIO()
    spi.o(i._ZN3SPIC1EP15MDR_SSP_TypeDefP16MDR_PORT_TypeDefttth17PORT_FUNC_TypeDef) refers to spi.o(i._ZN3SPI8initPortEP16MDR_PORT_TypeDefttt17PORT_FUNC_TypeDef) for SPI::initPort(MDR_PORT_TypeDef*, unsigned short, unsigned short, unsigned short, PORT_FUNC_TypeDef)
    spi.o(i._ZN3SPIC1EP15MDR_SSP_TypeDefP16MDR_PORT_TypeDefttth17PORT_FUNC_TypeDef) refers to spi.o(i._ZN3SPI4initEh) for SPI::init(unsigned char)
    spi.o(i._ZN3SPIC1EP15MDR_SSP_TypeDefP9PortMapIOS3_S3_) refers to port.o(i._ZN9PortMapIOC1Ev) for PortMapIO::PortMapIO()
    spi.o(i._ZN3SPIC1EP15MDR_SSP_TypeDefP9PortMapIOS3_S3_) refers to spi.o(i._ZN3SPI4initEh) for SPI::init(unsigned char)
    spi.o(i._ZN3SPIC1Ev) refers to port.o(i._ZN9PortMapIOC1Ev) for PortMapIO::PortMapIO()
    spi.o(.ARM.exidx) refers to spi.o(i._ZN3SPIC1Ev) for i._ZN3SPIC1Ev
    spi.o(.ARM.exidx) refers to spi.o(i._ZN3SPI4initEh) for i._ZN3SPI4initEh
    spi.o(.ARM.exidx) refers to spi.o(i._ZN3SPIC1EP15MDR_SSP_TypeDef) for i._ZN3SPIC1EP15MDR_SSP_TypeDef
    spi.o(.ARM.exidx) refers to spi.o(i._ZN3SPIC1EP15MDR_SSP_TypeDefP9PortMapIOS3_S3_) for i._ZN3SPIC1EP15MDR_SSP_TypeDefP9PortMapIOS3_S3_
    spi.o(.ARM.exidx) refers to spi.o(i._ZN3SPI8initPortEP16MDR_PORT_TypeDefttt17PORT_FUNC_TypeDef) for i._ZN3SPI8initPortEP16MDR_PORT_TypeDefttt17PORT_FUNC_TypeDef
    spi.o(.ARM.exidx) refers to spi.o(i._ZN3SPIC1EP15MDR_SSP_TypeDefP16MDR_PORT_TypeDefttth17PORT_FUNC_TypeDef) for i._ZN3SPIC1EP15MDR_SSP_TypeDefP16MDR_PORT_TypeDefttth17PORT_FUNC_TypeDef
    spi.o(.ARM.exidx) refers to spi.o(i._ZN3SPI8transmitEPh) for i._ZN3SPI8transmitEPh
    spi.o(.ARM.exidx) refers to spi.o(i._ZN3SPI15write_then_readEPhjS0_jh) for i._ZN3SPI15write_then_readEPhjS0_jh
    spi.o(.ARM.exidx) refers to spi.o(i._ZN3SPI5writeEPhj) for i._ZN3SPI5writeEPhj
    ledind.o(i._ZN8LED_CODE7setCodeEh) refers to port.o(i._ZN9PortMapIO6setLowEv) for PortMapIO::setLow()
    ledind.o(i._ZN8LED_CODE7setCodeEh) refers to ledind.o(i.__ARM_common_switch8) for __ARM_common_switch8
    ledind.o(i._ZN8LED_CODE7setCodeEh) refers to port.o(i._ZN9PortMapIO7setHighEv) for PortMapIO::setHigh()
    ledind.o(i._ZN9LED_DIGIT9showDigitEht) refers to ledind.o(i._ZN8LED_CODE7setCodeEh) for LED_CODE::setCode(unsigned char)
    ledind.o(i._ZN9LED_DIGIT9showDigitEht) refers to port.o(i._ZN9PortMapIO6setLowEv) for PortMapIO::setLow()
    ledind.o(i._ZN9LED_DIGIT9showDigitEht) refers to port.o(i._ZN9PortMapIO7setHighEv) for PortMapIO::setHigh()
    ledind.o(.ARM.exidx) refers to ledind.o(i._ZN8LED_CODEC1Ev) for i._ZN8LED_CODEC1Ev
    ledind.o(.ARM.exidx) refers to ledind.o(i._ZN8LED_CODEC1EP9PortMapIOS1_S1_S1_S1_S1_S1_S1_S1_S1_) for i._ZN8LED_CODEC1EP9PortMapIOS1_S1_S1_S1_S1_S1_S1_S1_S1_
    ledind.o(.ARM.exidx) refers to ledind.o(i._ZN8LED_CODE7setCodeEh) for i._ZN8LED_CODE7setCodeEh
    ledind.o(.ARM.exidx) refers to ledind.o(i._ZN10LED_CATODEC1Ev) for i._ZN10LED_CATODEC1Ev
    ledind.o(.ARM.exidx) refers to ledind.o(i._ZN10LED_CATODEC1EP9PortMapIO) for i._ZN10LED_CATODEC1EP9PortMapIO
    ledind.o(.ARM.exidx) refers to ledind.o(i._ZN9LED_DIGITC1EP8LED_CODEP10LED_CATODE) for i._ZN9LED_DIGITC1EP8LED_CODEP10LED_CATODE
    ledind.o(.ARM.exidx) refers to ledind.o(i._ZN9LED_DIGITC1EP8LED_CODEP10LED_CATODEh) for i._ZN9LED_DIGITC1EP8LED_CODEP10LED_CATODEh
    ledind.o(.ARM.exidx) refers to ledind.o(i._ZN9LED_DIGIT9showDigitEht) for i._ZN9LED_DIGIT9showDigitEht
    sensorbutton.o(.ARM.exidx) refers to sensorbutton.o(i._ZN6BUTTON11BTN_HandlerE11btn_alias_t) for i._ZN6BUTTON11BTN_HandlerE11btn_alias_t
    port.o(i._ZN9PortMapIO10enablePortEv) refers to mdr32f9qx_rst_clk.o(i.RST_CLK_PCLKcmd) for RST_CLK_PCLKcmd
    port.o(i._ZN9PortMapIO11fullInitPinE15PORT_OE_TypeDef20PORT_PULL_UP_TypeDef22PORT_PULL_DOWN_TypeDef19PORT_PD_SHM_TypeDef15PORT_PD_TypeDef17PORT_GFEN_TypeDef17PORT_FUNC_TypeDef18PORT_SPEED_TypeDef17PORT_MODE_TypeDef) refers to mdr32f9qx_port.o(i.PORT_StructInit) for PORT_StructInit
    port.o(i._ZN9PortMapIO11fullInitPinE15PORT_OE_TypeDef20PORT_PULL_UP_TypeDef22PORT_PULL_DOWN_TypeDef19PORT_PD_SHM_TypeDef15PORT_PD_TypeDef17PORT_GFEN_TypeDef17PORT_FUNC_TypeDef18PORT_SPEED_TypeDef17PORT_MODE_TypeDef) refers to mdr32f9qx_port.o(i.PORT_Init) for PORT_Init
    port.o(i._ZN9PortMapIO18PortMapIoPORT_ReadEv) refers to mdr32f9qx_port.o(i.PORT_ReadInputData) for PORT_ReadInputData
    port.o(i._ZN9PortMapIO19PortMapIoPORT_WriteEPt) refers to mdr32f9qx_port.o(i.PORT_Write) for PORT_Write
    port.o(i._ZN9PortMapIO4initEv) refers to port.o(i._ZN9PortMapIO10enablePortEv) for PortMapIO::enablePort()
    port.o(i._ZN9PortMapIO4initEv) refers to mdr32f9qx_port.o(i.PORT_StructInit) for PORT_StructInit
    port.o(i._ZN9PortMapIO4initEv) refers to mdr32f9qx_port.o(i.PORT_Init) for PORT_Init
    port.o(i._ZN9PortMapIO6setLowEv) refers to mdr32f9qx_port.o(i.PORT_ResetBits) for PORT_ResetBits
    port.o(i._ZN9PortMapIO7setHighEv) refers to mdr32f9qx_port.o(i.PORT_SetBits) for PORT_SetBits
    port.o(i._ZN9PortMapIO9getStatusEv) refers to mdr32f9qx_port.o(i.PORT_ReadInputDataBit) for PORT_ReadInputDataBit
    port.o(i._ZN9PortMapIOC1EP16MDR_PORT_TypeDeft) refers to port.o(i._ZN9PortMapIO4initEv) for PortMapIO::init()
    port.o(i._ZN9PortMapIOC1EP16MDR_PORT_TypeDeft15PORT_OE_TypeDef20PORT_PULL_UP_TypeDef22PORT_PULL_DOWN_TypeDef19PORT_PD_SHM_TypeDef15PORT_PD_TypeDef17PORT_GFEN_TypeDef17PORT_FUNC_TypeDef18PORT_SPEED_TypeDef17PORT_MODE_TypeDef) refers to port.o(i._ZN9PortMapIO10enablePortEv) for PortMapIO::enablePort()
    port.o(i._ZN9PortMapIOC1EP16MDR_PORT_TypeDeft15PORT_OE_TypeDef20PORT_PULL_UP_TypeDef22PORT_PULL_DOWN_TypeDef19PORT_PD_SHM_TypeDef15PORT_PD_TypeDef17PORT_GFEN_TypeDef17PORT_FUNC_TypeDef18PORT_SPEED_TypeDef17PORT_MODE_TypeDef) refers to port.o(i._ZN9PortMapIO11fullInitPinE15PORT_OE_TypeDef20PORT_PULL_UP_TypeDef22PORT_PULL_DOWN_TypeDef19PORT_PD_SHM_TypeDef15PORT_PD_TypeDef17PORT_GFEN_TypeDef17PORT_FUNC_TypeDef18PORT_SPEED_TypeDef17PORT_MODE_TypeDef) for PortMapIO::fullInitPin(PORT_OE_TypeDef, PORT_PULL_UP_TypeDef, PORT_PULL_DOWN_TypeDef, PORT_PD_SHM_TypeDef, PORT_PD_TypeDef, PORT_GFEN_TypeDef, PORT_FUNC_TypeDef, PORT_SPEED_TypeDef, PORT_MODE_TypeDef)
    port.o(.ARM.exidx) refers to port.o(i._ZN9PortMapIOC1Ev) for i._ZN9PortMapIOC1Ev
    port.o(.ARM.exidx) refers to port.o(i._ZN9PortMapIO10enablePortEv) for i._ZN9PortMapIO10enablePortEv
    port.o(.ARM.exidx) refers to port.o(i._ZN9PortMapIO4initEv) for i._ZN9PortMapIO4initEv
    port.o(.ARM.exidx) refers to port.o(i._ZN9PortMapIOC1EP16MDR_PORT_TypeDeft) for i._ZN9PortMapIOC1EP16MDR_PORT_TypeDeft
    port.o(.ARM.exidx) refers to port.o(i._ZN9PortMapIO11fullInitPinE15PORT_OE_TypeDef20PORT_PULL_UP_TypeDef22PORT_PULL_DOWN_TypeDef19PORT_PD_SHM_TypeDef15PORT_PD_TypeDef17PORT_GFEN_TypeDef17PORT_FUNC_TypeDef18PORT_SPEED_TypeDef17PORT_MODE_TypeDef) for i._ZN9PortMapIO11fullInitPinE15PORT_OE_TypeDef20PORT_PULL_UP_TypeDef22PORT_PULL_DOWN_TypeDef19PORT_PD_SHM_TypeDef15PORT_PD_TypeDef17PORT_GFEN_TypeDef17PORT_FUNC_TypeDef18PORT_SPEED_TypeDef17PORT_MODE_TypeDef
    port.o(.ARM.exidx) refers to port.o(i._ZN9PortMapIOC1EP16MDR_PORT_TypeDeft15PORT_OE_TypeDef20PORT_PULL_UP_TypeDef22PORT_PULL_DOWN_TypeDef19PORT_PD_SHM_TypeDef15PORT_PD_TypeDef17PORT_GFEN_TypeDef17PORT_FUNC_TypeDef18PORT_SPEED_TypeDef17PORT_MODE_TypeDef) for i._ZN9PortMapIOC1EP16MDR_PORT_TypeDeft15PORT_OE_TypeDef20PORT_PULL_UP_TypeDef22PORT_PULL_DOWN_TypeDef19PORT_PD_SHM_TypeDef15PORT_PD_TypeDef17PORT_GFEN_TypeDef17PORT_FUNC_TypeDef18PORT_SPEED_TypeDef17PORT_MODE_TypeDef
    port.o(.ARM.exidx) refers to port.o(i._ZN9PortMapIO9togglePinEv) for i._ZN9PortMapIO9togglePinEv
    port.o(.ARM.exidx) refers to port.o(i._ZN9PortMapIO6setLowEv) for i._ZN9PortMapIO6setLowEv
    port.o(.ARM.exidx) refers to port.o(i._ZN9PortMapIO7setHighEv) for i._ZN9PortMapIO7setHighEv
    port.o(.ARM.exidx) refers to port.o(i._ZN9PortMapIO9getStatusEv) for i._ZN9PortMapIO9getStatusEv
    port.o(.ARM.exidx) refers to port.o(i._ZN9PortMapIO13setPinAsInputEv) for i._ZN9PortMapIO13setPinAsInputEv
    port.o(.ARM.exidx) refers to port.o(i._ZN9PortMapIO11setPinAsOffEv) for i._ZN9PortMapIO11setPinAsOffEv
    port.o(.ARM.exidx) refers to port.o(i._ZN9PortMapIO14setPinAsOutputEv) for i._ZN9PortMapIO14setPinAsOutputEv
    port.o(.ARM.exidx) refers to port.o(i._ZN9PortMapIO14setPinAsAnalogEv) for i._ZN9PortMapIO14setPinAsAnalogEv
    port.o(.ARM.exidx) refers to port.o(i._ZN9PortMapIO18PortMapIoPORT_ReadEv) for i._ZN9PortMapIO18PortMapIoPORT_ReadEv
    port.o(.ARM.exidx) refers to port.o(i._ZN9PortMapIO19PortMapIoPORT_WriteEPt) for i._ZN9PortMapIO19PortMapIoPORT_WriteEPt
    tft_module.o(.ARM.exidx) refers to tft_module.o(i._ZN10TFT_MODULEC1EP16MDR_PORT_TypeDefS1_S1_S1_tttt) for i._ZN10TFT_MODULEC1EP16MDR_PORT_TypeDefS1_S1_S1_tttt
    tft_module.o(.ARM.exidx) refers to tft_module.o(i._ZN10TFT_MODULE9initTouchEv) for i._ZN10TFT_MODULE9initTouchEv
    tft_module.o(.ARM.exidx) refers to tft_module.o(i._ZN10TFT_MODULE13switchToTouchEv) for i._ZN10TFT_MODULE13switchToTouchEv
    tft_module.o(.ARM.exidx) refers to tft_module.o(i._ZN10TFT_MODULE11switchToTFTEv) for i._ZN10TFT_MODULE11switchToTFTEv
    touchscreen.o(i._ZN11TOUCHSCREEN12switchToReadEP9PortMapIOS1_S1_S1_) refers to port.o(i._ZN9PortMapIO14setPinAsOutputEv) for PortMapIO::setPinAsOutput()
    touchscreen.o(i._ZN11TOUCHSCREEN12switchToReadEP9PortMapIOS1_S1_S1_) refers to port.o(i._ZN9PortMapIO14setPinAsAnalogEv) for PortMapIO::setPinAsAnalog()
    touchscreen.o(i._ZN11TOUCHSCREEN12switchToReadEP9PortMapIOS1_S1_S1_) refers to port.o(i._ZN9PortMapIO11setPinAsOffEv) for PortMapIO::setPinAsOff()
    touchscreen.o(i._ZN11TOUCHSCREEN12switchToReadEP9PortMapIOS1_S1_S1_) refers to port.o(i._ZN9PortMapIO7setHighEv) for PortMapIO::setHigh()
    touchscreen.o(i._ZN11TOUCHSCREEN12switchToReadEP9PortMapIOS1_S1_S1_) refers to port.o(i._ZN9PortMapIO6setLowEv) for PortMapIO::setLow()
    touchscreen.o(i._ZN11TOUCHSCREEN13switchToReadXEv) refers to port.o(i._ZN9PortMapIO14setPinAsOutputEv) for PortMapIO::setPinAsOutput()
    touchscreen.o(i._ZN11TOUCHSCREEN13switchToReadXEv) refers to port.o(i._ZN9PortMapIO14setPinAsAnalogEv) for PortMapIO::setPinAsAnalog()
    touchscreen.o(i._ZN11TOUCHSCREEN13switchToReadXEv) refers to port.o(i._ZN9PortMapIO11setPinAsOffEv) for PortMapIO::setPinAsOff()
    touchscreen.o(i._ZN11TOUCHSCREEN13switchToReadXEv) refers to port.o(i._ZN9PortMapIO7setHighEv) for PortMapIO::setHigh()
    touchscreen.o(i._ZN11TOUCHSCREEN13switchToReadXEv) refers to port.o(i._ZN9PortMapIO6setLowEv) for PortMapIO::setLow()
    touchscreen.o(i._ZN11TOUCHSCREEN13switchToReadYEv) refers to port.o(i._ZN9PortMapIO14setPinAsOutputEv) for PortMapIO::setPinAsOutput()
    touchscreen.o(i._ZN11TOUCHSCREEN13switchToReadYEv) refers to port.o(i._ZN9PortMapIO14setPinAsAnalogEv) for PortMapIO::setPinAsAnalog()
    touchscreen.o(i._ZN11TOUCHSCREEN13switchToReadYEv) refers to port.o(i._ZN9PortMapIO11setPinAsOffEv) for PortMapIO::setPinAsOff()
    touchscreen.o(i._ZN11TOUCHSCREEN13switchToReadYEv) refers to port.o(i._ZN9PortMapIO7setHighEv) for PortMapIO::setHigh()
    touchscreen.o(i._ZN11TOUCHSCREEN13switchToReadYEv) refers to port.o(i._ZN9PortMapIO6setLowEv) for PortMapIO::setLow()
    touchscreen.o(i._ZN11TOUCHSCREEN14switchAsButtonEv) refers to port.o(i._ZN9PortMapIO14setPinAsOutputEv) for PortMapIO::setPinAsOutput()
    touchscreen.o(i._ZN11TOUCHSCREEN14switchAsButtonEv) refers to port.o(i._ZN9PortMapIO13setPinAsInputEv) for PortMapIO::setPinAsInput()
    touchscreen.o(i._ZN11TOUCHSCREEN14switchAsButtonEv) refers to port.o(i._ZN9PortMapIO11setPinAsOffEv) for PortMapIO::setPinAsOff()
    touchscreen.o(i._ZN11TOUCHSCREEN14switchAsButtonEv) refers to port.o(i._ZN9PortMapIO6setLowEv) for PortMapIO::setLow()
    touchscreen.o(i._ZN11TOUCHSCREEN15switchAsDisplayEv) refers to port.o(i._ZN9PortMapIO14setPinAsOutputEv) for PortMapIO::setPinAsOutput()
    touchscreen.o(i._ZN11TOUCHSCREEN4initEv) refers to port.o(i._ZN9PortMapIO11setPinAsOffEv) for PortMapIO::setPinAsOff()
    touchscreen.o(i._ZN11TOUCHSCREEN6getPosEv) refers to delay.o(i._ZN5DELAY8delay_msEj) for DELAY::delay_ms(unsigned)
    touchscreen.o(i._ZN11TOUCHSCREEN6getPosEv) refers to touchscreen.o(i._ZN11TOUCHSCREEN13switchToReadXEv) for TOUCHSCREEN::switchToReadX()
    touchscreen.o(i._ZN11TOUCHSCREEN6getPosEv) refers to touchscreen.o(i._ZN11TOUCHSCREEN8readAxisEt) for TOUCHSCREEN::readAxis(unsigned short)
    touchscreen.o(i._ZN11TOUCHSCREEN6getPosEv) refers to aeabi_sdiv.o(.text) for __aeabi_idivmod
    touchscreen.o(i._ZN11TOUCHSCREEN6getPosEv) refers to fflti.o(.text) for __aeabi_i2f
    touchscreen.o(i._ZN11TOUCHSCREEN6getPosEv) refers to touchscreen.o(i._ZN11TOUCHSCREEN13switchToReadYEv) for TOUCHSCREEN::switchToReadY()
    touchscreen.o(i._ZN11TOUCHSCREEN6getPosEv) refers to dflti.o(.text) for __aeabi_i2d
    touchscreen.o(i._ZN11TOUCHSCREEN6getPosEv) refers to ddiv.o(.text) for __aeabi_ddiv
    touchscreen.o(i._ZN11TOUCHSCREEN6getPosEv) refers to d2f.o(.text) for __aeabi_d2f
    touchscreen.o(i._ZN11TOUCHSCREEN6getPosEv) refers to ffixui.o(.text) for __aeabi_f2uiz
    touchscreen.o(i._ZN11TOUCHSCREEN8readAxisEt) refers to adc.o(i._ZN3ADC10setChannelEj) for ADC::setChannel(unsigned)
    touchscreen.o(i._ZN11TOUCHSCREEN8readAxisEt) refers to delay.o(i._ZN5DELAY8delay_msEj) for DELAY::delay_ms(unsigned)
    touchscreen.o(i._ZN11TOUCHSCREEN8readAxisEt) refers to mdr32f9qx_adc.o(i.ADC1_GetFlagStatus) for ADC1_GetFlagStatus
    touchscreen.o(i._ZN11TOUCHSCREEN8readAxisEt) refers to adc.o(i._ZN3ADC8readDataEv) for ADC::readData()
    touchscreen.o(i._ZN11TOUCHSCREEN9readButonEv) refers to port.o(i._ZN9PortMapIO9getStatusEv) for PortMapIO::getStatus()
    touchscreen.o(i._ZN11TOUCHSCREENC1EP9PortMapIOS1_S1_S1_P5DELAYP3ADC) refers to port.o(i._ZN9PortMapIOC1Ev) for PortMapIO::PortMapIO()
    touchscreen.o(.ARM.exidx) refers to touchscreen.o(i._ZN11TOUCHSCREENC1EP9PortMapIOS1_S1_S1_P5DELAYP3ADC) for i._ZN11TOUCHSCREENC1EP9PortMapIOS1_S1_S1_P5DELAYP3ADC
    touchscreen.o(.ARM.exidx) refers to touchscreen.o(i._ZN11TOUCHSCREEN4initEv) for i._ZN11TOUCHSCREEN4initEv
    touchscreen.o(.ARM.exidx) refers to touchscreen.o(i._ZN11TOUCHSCREEN12switchToReadEP9PortMapIOS1_S1_S1_) for i._ZN11TOUCHSCREEN12switchToReadEP9PortMapIOS1_S1_S1_
    touchscreen.o(.ARM.exidx) refers to touchscreen.o(i._ZN11TOUCHSCREEN9readButonEv) for i._ZN11TOUCHSCREEN9readButonEv
    touchscreen.o(.ARM.exidx) refers to touchscreen.o(i._ZN11TOUCHSCREEN14switchAsButtonEv) for i._ZN11TOUCHSCREEN14switchAsButtonEv
    touchscreen.o(.ARM.exidx) refers to touchscreen.o(i._ZN11TOUCHSCREEN15switchAsDisplayEv) for i._ZN11TOUCHSCREEN15switchAsDisplayEv
    touchscreen.o(.ARM.exidx) refers to touchscreen.o(i._ZN11TOUCHSCREEN13switchToReadXEv) for i._ZN11TOUCHSCREEN13switchToReadXEv
    touchscreen.o(.ARM.exidx) refers to touchscreen.o(i._ZN11TOUCHSCREEN13switchToReadYEv) for i._ZN11TOUCHSCREEN13switchToReadYEv
    touchscreen.o(.ARM.exidx) refers to touchscreen.o(i._ZN11TOUCHSCREEN8readAxisEt) for i._ZN11TOUCHSCREEN8readAxisEt
    touchscreen.o(.ARM.exidx) refers to touchscreen.o(i._ZN11TOUCHSCREEN6getPosEv) for i._ZN11TOUCHSCREEN6getPosEv
    ili9488.o(i._ZN7ILI948810fillCircleEiii) refers to ili9488.o(i._ZN7ILI948813drawFastHLineEssst) for ILI9488::drawFastHLine(short, short, short, unsigned short)
    ili9488.o(i._ZN7ILI948810fillScreenEt) refers to ili9488.o(i._ZN7ILI94888fillRectEsssst) for ILI9488::fillRect(short, short, short, short, unsigned short)
    ili9488.o(i._ZN7ILI948812printChar_x2Ehii) refers to ili9488.o(i._ZN7ILI948813setAddrWindowEtttt) for ILI9488::setAddrWindow(unsigned short, unsigned short, unsigned short, unsigned short)
    ili9488.o(i._ZN7ILI948812printChar_x2Ehii) refers to port.o(i._ZN9PortMapIO7setHighEv) for PortMapIO::setHigh()
    ili9488.o(i._ZN7ILI948812printChar_x2Ehii) refers to port.o(i._ZN9PortMapIO6setLowEv) for PortMapIO::setLow()
    ili9488.o(i._ZN7ILI948812printChar_x2Ehii) refers to ili9488.o(i._ZN7ILI94888setPixelEt) for ILI9488::setPixel(unsigned short)
    ili9488.o(i._ZN7ILI948812setBackColorEhhh) refers to ili9488.o(i._ZN7ILI948811setColor565Ehhh) for ILI9488::setColor565(unsigned char, unsigned char, unsigned char)
    ili9488.o(i._ZN7ILI948812setBackColorEhhh) refers to ili9488.o(i._ZN7ILI948812setBackColorEj) for ILI9488::setBackColor(unsigned)
    ili9488.o(i._ZN7ILI948812writecommandEh) refers to port.o(i._ZN9PortMapIO6setLowEv) for PortMapIO::setLow()
    ili9488.o(i._ZN7ILI948812writecommandEh) refers to ili9488.o(i._ZN7ILI94888sendasIOEPh) for ILI9488::sendasIO(unsigned char*)
    ili9488.o(i._ZN7ILI948813drawFastHLineEssst) refers to ili9488.o(i._ZN7ILI948813setAddrWindowEtttt) for ILI9488::setAddrWindow(unsigned short, unsigned short, unsigned short, unsigned short)
    ili9488.o(i._ZN7ILI948813drawFastHLineEssst) refers to port.o(i._ZN9PortMapIO7setHighEv) for PortMapIO::setHigh()
    ili9488.o(i._ZN7ILI948813drawFastHLineEssst) refers to port.o(i._ZN9PortMapIO6setLowEv) for PortMapIO::setLow()
    ili9488.o(i._ZN7ILI948813drawFastHLineEssst) refers to ili9488.o(i._ZN7ILI948813writeColor565Ev) for ILI9488::writeColor565()
    ili9488.o(i._ZN7ILI948813drawFastVLineEssst) refers to ili9488.o(i._ZN7ILI948813setAddrWindowEtttt) for ILI9488::setAddrWindow(unsigned short, unsigned short, unsigned short, unsigned short)
    ili9488.o(i._ZN7ILI948813drawFastVLineEssst) refers to port.o(i._ZN9PortMapIO7setHighEv) for PortMapIO::setHigh()
    ili9488.o(i._ZN7ILI948813drawFastVLineEssst) refers to port.o(i._ZN9PortMapIO6setLowEv) for PortMapIO::setLow()
    ili9488.o(i._ZN7ILI948813drawFastVLineEssst) refers to ili9488.o(i._ZN7ILI948813writeColor565Ev) for ILI9488::writeColor565()
    ili9488.o(i._ZN7ILI948813setAddrWindowEtttt) refers to port.o(i._ZN9PortMapIO6setLowEv) for PortMapIO::setLow()
    ili9488.o(i._ZN7ILI948813setAddrWindowEtttt) refers to ili9488.o(i._ZN7ILI948812writecommandEh) for ILI9488::writecommand(unsigned char)
    ili9488.o(i._ZN7ILI948813setAddrWindowEtttt) refers to ili9488.o(i._ZN7ILI94889writedataEh) for ILI9488::writedata(unsigned char)
    ili9488.o(i._ZN7ILI948813setAddrWindowEtttt) refers to port.o(i._ZN9PortMapIO7setHighEv) for PortMapIO::setHigh()
    ili9488.o(i._ZN7ILI948813setScrollAreaEtt) refers to port.o(i._ZN9PortMapIO6setLowEv) for PortMapIO::setLow()
    ili9488.o(i._ZN7ILI948813setScrollAreaEtt) refers to ili9488.o(i._ZN7ILI948812writecommandEh) for ILI9488::writecommand(unsigned char)
    ili9488.o(i._ZN7ILI948813setScrollAreaEtt) refers to ili9488.o(i._ZN7ILI94889writedataEh) for ILI9488::writedata(unsigned char)
    ili9488.o(i._ZN7ILI948813setScrollAreaEtt) refers to port.o(i._ZN9PortMapIO7setHighEv) for PortMapIO::setHigh()
    ili9488.o(i._ZN7ILI948813writeColor565Ev) refers to ili9488.o(i._ZN7ILI94888sendasIOEPh) for ILI9488::sendasIO(unsigned char*)
    ili9488.o(i._ZN7ILI948814setOrientationEh) refers to port.o(i._ZN9PortMapIO6setLowEv) for PortMapIO::setLow()
    ili9488.o(i._ZN7ILI948814setOrientationEh) refers to ili9488.o(i._ZN7ILI948812writecommandEh) for ILI9488::writecommand(unsigned char)
    ili9488.o(i._ZN7ILI948814setOrientationEh) refers to ili9488.o(i._ZN7ILI94889writedataEh) for ILI9488::writedata(unsigned char)
    ili9488.o(i._ZN7ILI948814setOrientationEh) refers to port.o(i._ZN9PortMapIO7setHighEv) for PortMapIO::setHigh()
    ili9488.o(i._ZN7ILI948815readPixelFormatEv) refers to port.o(i._ZN9PortMapIO6setLowEv) for PortMapIO::setLow()
    ili9488.o(i._ZN7ILI948815readPixelFormatEv) refers to ili9488.o(i._ZN7ILI948812writecommandEh) for ILI9488::writecommand(unsigned char)
    ili9488.o(i._ZN7ILI948815readPixelFormatEv) refers to port.o(i._ZN9PortMapIO7setHighEv) for PortMapIO::setHigh()
    ili9488.o(i._ZN7ILI94885beginEv) refers to port.o(i._ZN9PortMapIO6setLowEv) for PortMapIO::setLow()
    ili9488.o(i._ZN7ILI94885beginEv) refers to ili9488.o(i._ZN7ILI948812writecommandEh) for ILI9488::writecommand(unsigned char)
    ili9488.o(i._ZN7ILI94885beginEv) refers to ili9488.o(i._ZN7ILI94889writedataEh) for ILI9488::writedata(unsigned char)
    ili9488.o(i._ZN7ILI94885beginEv) refers to port.o(i._ZN9PortMapIO7setHighEv) for PortMapIO::setHigh()
    ili9488.o(i._ZN7ILI94885beginEv) refers to ili9488.o(i._ZN7ILI948814setOrientationEh) for ILI9488::setOrientation(unsigned char)
    ili9488.o(i._ZN7ILI94885beginEv) refers to delay.o(i._ZN5DELAY8delay_msEj) for DELAY::delay_ms(unsigned)
    ili9488.o(i._ZN7ILI94885clrXYEv) refers to ili9488.o(i._ZN7ILI94885setXYEtttt) for ILI9488::setXY(unsigned short, unsigned short, unsigned short, unsigned short)
    ili9488.o(i._ZN7ILI94885printEPciiii) refers to ili9488.o(i._ZN7ILI94889printCharEhii) for ILI9488::printChar(unsigned char, int, int)
    ili9488.o(i._ZN7ILI94885setXYEtttt) refers to ili9488.o(t._Z4swapItEvRT_S1_) for void swap<unsigned short>(T1&, T1&)
    ili9488.o(i._ZN7ILI94885setXYEtttt) refers to port.o(i._ZN9PortMapIO6setLowEv) for PortMapIO::setLow()
    ili9488.o(i._ZN7ILI94885setXYEtttt) refers to ili9488.o(i._ZN7ILI948812writecommandEh) for ILI9488::writecommand(unsigned char)
    ili9488.o(i._ZN7ILI94885setXYEtttt) refers to ili9488.o(i._ZN7ILI94889writedataEh) for ILI9488::writedata(unsigned char)
    ili9488.o(i._ZN7ILI94885setXYEtttt) refers to port.o(i._ZN9PortMapIO7setHighEv) for PortMapIO::setHigh()
    ili9488.o(i._ZN7ILI94886_printEPciii) refers to ili9488.o(i._ZN7ILI94889printCharEhii) for ILI9488::printChar(unsigned char, int, int)
    ili9488.o(i._ZN7ILI94886scrollEt) refers to port.o(i._ZN9PortMapIO6setLowEv) for PortMapIO::setLow()
    ili9488.o(i._ZN7ILI94886scrollEt) refers to ili9488.o(i._ZN7ILI948812writecommandEh) for ILI9488::writecommand(unsigned char)
    ili9488.o(i._ZN7ILI94886scrollEt) refers to ili9488.o(i._ZN7ILI94889writedataEh) for ILI9488::writedata(unsigned char)
    ili9488.o(i._ZN7ILI94886scrollEt) refers to port.o(i._ZN9PortMapIO7setHighEv) for PortMapIO::setHigh()
    ili9488.o(i._ZN7ILI94887testPinEv) refers to port.o(i._ZN9PortMapIO6setLowEv) for PortMapIO::setLow()
    ili9488.o(i._ZN7ILI94887testPinEv) refers to ili9488.o(i._ZN7ILI948812writecommandEh) for ILI9488::writecommand(unsigned char)
    ili9488.o(i._ZN7ILI94887testPinEv) refers to ili9488.o(i._ZN7ILI94889writedataEh) for ILI9488::writedata(unsigned char)
    ili9488.o(i._ZN7ILI94887testPinEv) refers to port.o(i._ZN9PortMapIO7setHighEv) for PortMapIO::setHigh()
    ili9488.o(i._ZN7ILI94888drawLineEsssst) refers to ili9488.o(i._ZN7ILI94888setColorEt) for ILI9488::setColor(unsigned short)
    ili9488.o(i._ZN7ILI94888drawLineEsssst) refers to ili9488.o(i._ZN7ILI948813drawFastVLineEssst) for ILI9488::drawFastVLine(short, short, short, unsigned short)
    ili9488.o(i._ZN7ILI94888drawLineEsssst) refers to ili9488.o(i._ZN7ILI948813drawFastHLineEssst) for ILI9488::drawFastHLine(short, short, short, unsigned short)
    ili9488.o(i._ZN7ILI94888drawLineEsssst) refers to ili9488.o(i._ZN7ILI94889writeLineEsssst) for ILI9488::writeLine(short, short, short, short, unsigned short)
    ili9488.o(i._ZN7ILI94888fillRectEsssst) refers to ili9488.o(i._ZN7ILI94888setColorEt) for ILI9488::setColor(unsigned short)
    ili9488.o(i._ZN7ILI94888fillRectEsssst) refers to ili9488.o(i._ZN7ILI948813setAddrWindowEtttt) for ILI9488::setAddrWindow(unsigned short, unsigned short, unsigned short, unsigned short)
    ili9488.o(i._ZN7ILI94888fillRectEsssst) refers to port.o(i._ZN9PortMapIO7setHighEv) for PortMapIO::setHigh()
    ili9488.o(i._ZN7ILI94888fillRectEsssst) refers to port.o(i._ZN9PortMapIO6setLowEv) for PortMapIO::setLow()
    ili9488.o(i._ZN7ILI94888fillRectEsssst) refers to ili9488.o(i._ZN7ILI948813writeColor565Ev) for ILI9488::writeColor565()
    ili9488.o(i._ZN7ILI94888sendasIOEPh) refers to port.o(i._ZN9PortMapIO6setLowEv) for PortMapIO::setLow()
    ili9488.o(i._ZN7ILI94888sendasIOEPh) refers to port.o(i._ZN9PortMapIO7setHighEv) for PortMapIO::setHigh()
    ili9488.o(i._ZN7ILI94888setColorEhhh) refers to ili9488.o(i._ZN7ILI948811setColor565Ehhh) for ILI9488::setColor565(unsigned char, unsigned char, unsigned char)
    ili9488.o(i._ZN7ILI94888setPixelEt) refers to ili9488.o(i._ZN7ILI94888sendasIOEPh) for ILI9488::sendasIO(unsigned char*)
    ili9488.o(i._ZN7ILI94888setPixelEv) refers to ili9488.o(i._ZN7ILI94888sendasIOEPh) for ILI9488::sendasIO(unsigned char*)
    ili9488.o(i._ZN7ILI94889drawImageEPKhtttt) refers to ili9488.o(i._ZN7ILI948813setAddrWindowEtttt) for ILI9488::setAddrWindow(unsigned short, unsigned short, unsigned short, unsigned short)
    ili9488.o(i._ZN7ILI94889drawImageEPKhtttt) refers to port.o(i._ZN9PortMapIO7setHighEv) for PortMapIO::setHigh()
    ili9488.o(i._ZN7ILI94889drawImageEPKhtttt) refers to port.o(i._ZN9PortMapIO6setLowEv) for PortMapIO::setLow()
    ili9488.o(i._ZN7ILI94889drawPixelEss) refers to ili9488.o(i._ZN7ILI948813setAddrWindowEtttt) for ILI9488::setAddrWindow(unsigned short, unsigned short, unsigned short, unsigned short)
    ili9488.o(i._ZN7ILI94889drawPixelEss) refers to port.o(i._ZN9PortMapIO7setHighEv) for PortMapIO::setHigh()
    ili9488.o(i._ZN7ILI94889drawPixelEss) refers to port.o(i._ZN9PortMapIO6setLowEv) for PortMapIO::setLow()
    ili9488.o(i._ZN7ILI94889drawPixelEss) refers to ili9488.o(i._ZN7ILI94888setPixelEv) for ILI9488::setPixel()
    ili9488.o(i._ZN7ILI94889drawPixelEsst) refers to ili9488.o(i._ZN7ILI94888setColorEt) for ILI9488::setColor(unsigned short)
    ili9488.o(i._ZN7ILI94889drawPixelEsst) refers to ili9488.o(i._ZN7ILI948813setAddrWindowEtttt) for ILI9488::setAddrWindow(unsigned short, unsigned short, unsigned short, unsigned short)
    ili9488.o(i._ZN7ILI94889drawPixelEsst) refers to port.o(i._ZN9PortMapIO7setHighEv) for PortMapIO::setHigh()
    ili9488.o(i._ZN7ILI94889drawPixelEsst) refers to port.o(i._ZN9PortMapIO6setLowEv) for PortMapIO::setLow()
    ili9488.o(i._ZN7ILI94889drawPixelEsst) refers to ili9488.o(i._ZN7ILI948813writeColor565Ev) for ILI9488::writeColor565()
    ili9488.o(i._ZN7ILI94889hardResetEv) refers to port.o(i._ZN9PortMapIO7setHighEv) for PortMapIO::setHigh()
    ili9488.o(i._ZN7ILI94889hardResetEv) refers to delay.o(i._ZN5DELAY8delay_msEj) for DELAY::delay_ms(unsigned)
    ili9488.o(i._ZN7ILI94889hardResetEv) refers to port.o(i._ZN9PortMapIO6setLowEv) for PortMapIO::setLow()
    ili9488.o(i._ZN7ILI94889printCharEhii) refers to ili9488.o(i._ZN7ILI948813setAddrWindowEtttt) for ILI9488::setAddrWindow(unsigned short, unsigned short, unsigned short, unsigned short)
    ili9488.o(i._ZN7ILI94889printCharEhii) refers to port.o(i._ZN9PortMapIO7setHighEv) for PortMapIO::setHigh()
    ili9488.o(i._ZN7ILI94889printCharEhii) refers to port.o(i._ZN9PortMapIO6setLowEv) for PortMapIO::setLow()
    ili9488.o(i._ZN7ILI94889printCharEhii) refers to ili9488.o(i._ZN7ILI94888setPixelEt) for ILI9488::setPixel(unsigned short)
    ili9488.o(i._ZN7ILI94889writeLineEsssst) refers to ili9488.o(i._ZN7ILI94888setColorEt) for ILI9488::setColor(unsigned short)
    ili9488.o(i._ZN7ILI94889writeLineEsssst) refers to fflti.o(.text) for __aeabi_i2f
    ili9488.o(i._ZN7ILI94889writeLineEsssst) refers to frlef.o(x$fpl$frleqf) for __aeabi_cfrcmple
    ili9488.o(i._ZN7ILI94889writeLineEsssst) refers to ffixi.o(.text) for __aeabi_f2iz
    ili9488.o(i._ZN7ILI94889writeLineEsssst) refers to ili9488.o(i._ZN7ILI94889drawPixelEss) for ILI9488::drawPixel(short, short)
    ili9488.o(i._ZN7ILI94889writedataEh) refers to port.o(i._ZN9PortMapIO7setHighEv) for PortMapIO::setHigh()
    ili9488.o(i._ZN7ILI94889writedataEh) refers to ili9488.o(i._ZN7ILI94888sendasIOEPh) for ILI9488::sendasIO(unsigned char*)
    ili9488.o(i._ZN7ILI9488C1EP9PortMapIOS1_S1_S1_S1_S1_S1_S1_S1_S1_S1_S1_S1_P16MDR_PORT_TypeDef) refers to port.o(i._ZN9PortMapIOC1Ev) for PortMapIO::PortMapIO()
    ili9488.o(i._ZN7ILI9488C1EP9PortMapIOS1_S1_S1_S1_S1_S1_S1_S1_S1_S1_S1_S1_P16MDR_PORT_TypeDef) refers to delay.o(i._ZN5DELAYC1Ev) for DELAY::DELAY()
    ili9488.o(i._ZN7ILI9488C1EP9PortMapIOS1_S1_S1_S1_S1_S1_S1_S1_S1_S1_S1_S1_P16MDR_PORT_TypeDef) refers to port.o(i._ZN9PortMapIO14setPinAsOutputEv) for PortMapIO::setPinAsOutput()
    ili9488.o(i._ZN7ILI9488C1EP9PortMapIOS1_S1_S1_S1_S1_S1_S1_S1_S1_S1_S1_S1_P16MDR_PORT_TypeDef) refers to port.o(i._ZN9PortMapIO7setHighEv) for PortMapIO::setHigh()
    ili9488.o(i._ZN7ILI9488C1EP9PortMapIOS1_S1_S1_S1_S1_S1_S1_S1_S1_S1_S1_S1_P16MDR_PORT_TypeDef) refers to ili9488.o(i._ZN7ILI94889hardResetEv) for ILI9488::hardReset()
    ili9488.o(i._ZN7ILI9488C1Ev) refers to port.o(i._ZN9PortMapIOC1Ev) for PortMapIO::PortMapIO()
    ili9488.o(i._ZN7ILI9488C1Ev) refers to delay.o(i._ZN5DELAYC1Ev) for DELAY::DELAY()
    ili9488.o(.ARM.exidx) refers to ili9488.o(i._ZN7ILI9488C1Ev) for i._ZN7ILI9488C1Ev
    ili9488.o(.ARM.exidx) refers to ili9488.o(i._ZN7ILI94889hardResetEv) for i._ZN7ILI94889hardResetEv
    ili9488.o(.ARM.exidx) refers to ili9488.o(i._ZN7ILI9488C1EP9PortMapIOS1_S1_S1_S1_S1_S1_S1_S1_S1_S1_S1_S1_P16MDR_PORT_TypeDef) for i._ZN7ILI9488C1EP9PortMapIOS1_S1_S1_S1_S1_S1_S1_S1_S1_S1_S1_S1_P16MDR_PORT_TypeDef
    ili9488.o(.ARM.exidx) refers to ili9488.o(i._ZN7ILI94888sendasIOEPh) for i._ZN7ILI94888sendasIOEPh
    ili9488.o(.ARM.exidx) refers to ili9488.o(i._ZN7ILI94889writedataEh) for i._ZN7ILI94889writedataEh
    ili9488.o(.ARM.exidx) refers to ili9488.o(i._ZN7ILI948812writecommandEh) for i._ZN7ILI948812writecommandEh
    ili9488.o(.ARM.exidx) refers to ili9488.o(i._ZN7ILI94887testPinEv) for i._ZN7ILI94887testPinEv
    ili9488.o(.ARM.exidx) refers to ili9488.o(i._ZN7ILI948814setOrientationEh) for i._ZN7ILI948814setOrientationEh
    ili9488.o(.ARM.exidx) refers to ili9488.o(i._ZN7ILI94885beginEv) for i._ZN7ILI94885beginEv
    ili9488.o(.ARM.exidx) refers to ili9488.o(i._ZN7ILI948815readPixelFormatEv) for i._ZN7ILI948815readPixelFormatEv
    ili9488.o(.ARM.exidx) refers to ili9488.o(i._ZN7ILI94885setXYEtttt) for i._ZN7ILI94885setXYEtttt
    ili9488.o(.ARM.exidx) refers to ili9488.o(i._ZN7ILI94885clrXYEv) for i._ZN7ILI94885clrXYEv
    ili9488.o(.ARM.exidx) refers to ili9488.o(i._ZN7ILI948813setAddrWindowEtttt) for i._ZN7ILI948813setAddrWindowEtttt
    ili9488.o(.ARM.exidx) refers to ili9488.o(i._ZN7ILI948813setScrollAreaEtt) for i._ZN7ILI948813setScrollAreaEtt
    ili9488.o(.ARM.exidx) refers to ili9488.o(i._ZN7ILI94886scrollEt) for i._ZN7ILI94886scrollEt
    ili9488.o(.ARM.exidx) refers to ili9488.o(i._ZN7ILI94888setColorEt) for i._ZN7ILI94888setColorEt
    ili9488.o(.ARM.exidx) refers to ili9488.o(i._ZN7ILI948811setColor565Ehhh) for i._ZN7ILI948811setColor565Ehhh
    ili9488.o(.ARM.exidx) refers to ili9488.o(i._ZN7ILI94888setColorEhhh) for i._ZN7ILI94888setColorEhhh
    ili9488.o(.ARM.exidx) refers to ili9488.o(i._ZN7ILI948812setBackColorEj) for i._ZN7ILI948812setBackColorEj
    ili9488.o(.ARM.exidx) refers to ili9488.o(i._ZN7ILI948812setBackColorEhhh) for i._ZN7ILI948812setBackColorEhhh
    ili9488.o(.ARM.exidx) refers to ili9488.o(i._ZN7ILI94889drawImageEPKhtttt) for i._ZN7ILI94889drawImageEPKhtttt
    ili9488.o(.ARM.exidx) refers to ili9488.o(i._ZN7ILI948813writeColor565Ev) for i._ZN7ILI948813writeColor565Ev
    ili9488.o(.ARM.exidx) refers to ili9488.o(i._ZN7ILI94888fillRectEsssst) for i._ZN7ILI94888fillRectEsssst
    ili9488.o(.ARM.exidx) refers to ili9488.o(i._ZN7ILI948810fillScreenEt) for i._ZN7ILI948810fillScreenEt
    ili9488.o(.ARM.exidx) refers to ili9488.o(i._ZN7ILI94888setPixelEv) for i._ZN7ILI94888setPixelEv
    ili9488.o(.ARM.exidx) refers to ili9488.o(i._ZN7ILI94888setPixelEt) for i._ZN7ILI94888setPixelEt
    ili9488.o(.ARM.exidx) refers to ili9488.o(i._ZN7ILI94889drawPixelEss) for i._ZN7ILI94889drawPixelEss
    ili9488.o(.ARM.exidx) refers to ili9488.o(i._ZN7ILI94889drawPixelEsst) for i._ZN7ILI94889drawPixelEsst
    ili9488.o(.ARM.exidx) refers to ili9488.o(i._ZN7ILI948813drawFastVLineEssst) for i._ZN7ILI948813drawFastVLineEssst
    ili9488.o(.ARM.exidx) refers to ili9488.o(i._ZN7ILI948813drawFastHLineEssst) for i._ZN7ILI948813drawFastHLineEssst
    ili9488.o(.ARM.exidx) refers to ili9488.o(i._ZN7ILI94889writeLineEsssst) for i._ZN7ILI94889writeLineEsssst
    ili9488.o(.ARM.exidx) refers to ili9488.o(i._ZN7ILI94888drawLineEsssst) for i._ZN7ILI94888drawLineEsssst
    ili9488.o(.ARM.exidx) refers to ili9488.o(i._ZN7ILI948810drawCircleEiii) for i._ZN7ILI948810drawCircleEiii
    ili9488.o(.ARM.exidx) refers to ili9488.o(i._ZN7ILI948810fillCircleEiii) for i._ZN7ILI948810fillCircleEiii
    ili9488.o(.ARM.exidx) refers to ili9488.o(i._ZN7ILI948811setRotationEh) for i._ZN7ILI948811setRotationEh
    ili9488.o(.ARM.exidx) refers to ili9488.o(i._ZN7ILI948813invertDisplayEh) for i._ZN7ILI948813invertDisplayEh
    ili9488.o(.ARM.exidx) refers to ili9488.o(i._ZN7ILI94888spiwriteEh) for i._ZN7ILI94888spiwriteEh
    ili9488.o(.ARM.exidx) refers to ili9488.o(i._ZN7ILI94889testLinesEh) for i._ZN7ILI94889testLinesEh
    ili9488.o(.ARM.exidx) refers to ili9488.o(i._ZN7ILI94887setFontEPKh) for i._ZN7ILI94887setFontEPKh
    ili9488.o(.ARM.exidx) refers to ili9488.o(i._ZN7ILI94887getFontEv) for i._ZN7ILI94887getFontEv
    ili9488.o(.ARM.exidx) refers to ili9488.o(i._ZN7ILI948812getFontXsizeEv) for i._ZN7ILI948812getFontXsizeEv
    ili9488.o(.ARM.exidx) refers to ili9488.o(i._ZN7ILI948812getFontYsizeEv) for i._ZN7ILI948812getFontYsizeEv
    ili9488.o(.ARM.exidx) refers to ili9488.o(i._ZN7ILI94889printCharEhii) for i._ZN7ILI94889printCharEhii
    ili9488.o(.ARM.exidx) refers to ili9488.o(i._ZN7ILI94885printEPciiii) for i._ZN7ILI94885printEPciiii
    ili9488.o(.ARM.exidx) refers to ili9488.o(i._ZN7ILI94886_printEPciii) for i._ZN7ILI94886_printEPciii
    ili9488.o(.ARM.exidx) refers to ili9488.o(i._ZN7ILI948812printChar_x2Ehii) for i._ZN7ILI948812printChar_x2Ehii
    timers.o(i._ZN5TIMER13setPeriodmSecEt) refers to aeabi_sdiv.o(.text) for __aeabi_uidivmod
    timers.o(i._ZN5TIMER13setPeriodmSecEt) refers to dflti.o(.text) for __aeabi_ui2d
    timers.o(i._ZN5TIMER13setPeriodmSecEt) refers to ddiv.o(.text) for __aeabi_ddiv
    timers.o(i._ZN5TIMER13setPeriodmSecEt) refers to drlef.o(x$fpl$drleqf) for __aeabi_cdrcmple
    timers.o(i._ZN5TIMER13setPeriodmSecEt) refers to daddsub.o(.text) for __aeabi_dsub
    timers.o(i._ZN5TIMER13setPeriodmSecEt) refers to dfixui.o(.text) for __aeabi_d2uiz
    timers.o(i._ZN5TIMER13setPeriodmSecEt) refers to system_mdr1986ve1t.o(.data) for SystemCoreClock
    timers.o(i._ZN5TIMER13setPerioduSecEt) refers to aeabi_sdiv.o(.text) for __aeabi_uidivmod
    timers.o(i._ZN5TIMER13setPerioduSecEt) refers to dflti.o(.text) for __aeabi_ui2d
    timers.o(i._ZN5TIMER13setPerioduSecEt) refers to ddiv.o(.text) for __aeabi_ddiv
    timers.o(i._ZN5TIMER13setPerioduSecEt) refers to daddsub.o(.text) for __aeabi_dsub
    timers.o(i._ZN5TIMER13setPerioduSecEt) refers to dfixui.o(.text) for __aeabi_d2uiz
    timers.o(i._ZN5TIMER13setPerioduSecEt) refers to system_mdr1986ve1t.o(.data) for SystemCoreClock
    timers.o(i._ZN5TIMER4initEP17MDR_TIMER_TypeDef) refers to mdr32f9qx_timer.o(i.TIMER_DeInit) for TIMER_DeInit
    timers.o(i._ZN5TIMER4initEP17MDR_TIMER_TypeDef) refers to mdr32f9qx_timer.o(i.TIMER_CntStructInit) for TIMER_CntStructInit
    timers.o(i._ZN5TIMER4initEP17MDR_TIMER_TypeDef) refers to mdr32f9qx_timer.o(i.TIMER_BRGInit) for TIMER_BRGInit
    timers.o(i._ZN5TIMER4initEP17MDR_TIMER_TypeDef) refers to mdr32f9qx_timer.o(i.TIMER_CntInit) for TIMER_CntInit
    timers.o(.ARM.exidx) refers to timers.o(i._ZN5TIMERC1EP17MDR_TIMER_TypeDef) for i._ZN5TIMERC1EP17MDR_TIMER_TypeDef
    timers.o(.ARM.exidx) refers to timers.o(i._ZN5TIMER4initEP17MDR_TIMER_TypeDef) for i._ZN5TIMER4initEP17MDR_TIMER_TypeDef
    timers.o(.ARM.exidx) refers to timers.o(i._ZN5TIMER13setPerioduSecEt) for i._ZN5TIMER13setPerioduSecEt
    timers.o(.ARM.exidx) refers to timers.o(i._ZN5TIMER13setPeriodmSecEt) for i._ZN5TIMER13setPeriodmSecEt
    timers.o(.ARM.exidx) refers to timers.o(i._ZN5TIMER12setPeriodSecEt) for i._ZN5TIMER12setPeriodSecEt
    timers.o(.ARM.exidx) refers to timers.o(i._ZN5TIMER11setPeriodHzEt) for i._ZN5TIMER11setPeriodHzEt
    mdr32f9qx_it.o(i.SysTick_Handler) refers to delay.o(.data) for tickDelay
    mdr32f9qx_it.o(.ARM.exidx) refers to mdr32f9qx_it.o(i.NMI_Handler) for i.NMI_Handler
    mdr32f9qx_it.o(.ARM.exidx) refers to mdr32f9qx_it.o(i.HardFault_Handler) for i.HardFault_Handler
    mdr32f9qx_it.o(.ARM.exidx) refers to mdr32f9qx_it.o(i.MemManage_Handler) for i.MemManage_Handler
    mdr32f9qx_it.o(.ARM.exidx) refers to mdr32f9qx_it.o(i.BusFault_Handler) for i.BusFault_Handler
    mdr32f9qx_it.o(.ARM.exidx) refers to mdr32f9qx_it.o(i.UsageFault_Handler) for i.UsageFault_Handler
    mdr32f9qx_it.o(.ARM.exidx) refers to mdr32f9qx_it.o(i.SVC_Handler) for i.SVC_Handler
    mdr32f9qx_it.o(.ARM.exidx) refers to mdr32f9qx_it.o(i.DebugMon_Handler) for i.DebugMon_Handler
    mdr32f9qx_it.o(.ARM.exidx) refers to mdr32f9qx_it.o(i.PendSV_Handler) for i.PendSV_Handler
    mdr32f9qx_it.o(.ARM.exidx) refers to mdr32f9qx_it.o(i.SysTick_Handler) for i.SysTick_Handler
    mdr32f9qx_it.o(.ARM.exidx) refers to mdr32f9qx_it.o(i.CAN1_IRQHandler) for i.CAN1_IRQHandler
    mdr32f9qx_it.o(.ARM.exidx) refers to mdr32f9qx_it.o(i.CAN2_IRQHandler) for i.CAN2_IRQHandler
    mdr32f9qx_it.o(.ARM.exidx) refers to mdr32f9qx_it.o(i.USB_IRQHandler) for i.USB_IRQHandler
    mdr32f9qx_it.o(.ARM.exidx) refers to mdr32f9qx_it.o(i.UART1_IRQHandler) for i.UART1_IRQHandler
    mdr32f9qx_it.o(.ARM.exidx) refers to mdr32f9qx_it.o(i.UART2_IRQHandler) for i.UART2_IRQHandler
    mdr32f9qx_it.o(.ARM.exidx) refers to mdr32f9qx_it.o(i.SSP1_IRQHandler) for i.SSP1_IRQHandler
    mdr32f9qx_it.o(.ARM.exidx) refers to mdr32f9qx_it.o(i.I2C_IRQHandler) for i.I2C_IRQHandler
    mdr32f9qx_it.o(.ARM.exidx) refers to mdr32f9qx_it.o(i.POWER_IRQHandler) for i.POWER_IRQHandler
    mdr32f9qx_it.o(.ARM.exidx) refers to mdr32f9qx_it.o(i.WWDG_IRQHandler) for i.WWDG_IRQHandler
    mdr32f9qx_it.o(.ARM.exidx) refers to mdr32f9qx_it.o(i.TIMER1_IRQHandler) for i.TIMER1_IRQHandler
    mdr32f9qx_it.o(.ARM.exidx) refers to mdr32f9qx_it.o(i.Timer2_IRQHandler) for i.Timer2_IRQHandler
    mdr32f9qx_it.o(.ARM.exidx) refers to mdr32f9qx_it.o(i.Timer3_IRQHandler) for i.Timer3_IRQHandler
    mdr32f9qx_it.o(.ARM.exidx) refers to mdr32f9qx_it.o(i.ADC_IRQHandler) for i.ADC_IRQHandler
    mdr32f9qx_it.o(.ARM.exidx) refers to mdr32f9qx_it.o(i.COMPARATOR_IRQHandler) for i.COMPARATOR_IRQHandler
    mdr32f9qx_it.o(.ARM.exidx) refers to mdr32f9qx_it.o(i.SSP2_IRQHandler) for i.SSP2_IRQHandler
    mdr32f9qx_it.o(.ARM.exidx) refers to mdr32f9qx_it.o(i.BACKUP_IRQHandler) for i.BACKUP_IRQHandler
    mdr32f9qx_it.o(.ARM.exidx) refers to mdr32f9qx_it.o(i.EXT_INT1_IRQHandler) for i.EXT_INT1_IRQHandler
    mdr32f9qx_it.o(.ARM.exidx) refers to mdr32f9qx_it.o(i.EXT_INT2_IRQHandler) for i.EXT_INT2_IRQHandler
    mdr32f9qx_it.o(.ARM.exidx) refers to mdr32f9qx_it.o(i.EXT_INT3_IRQHandler) for i.EXT_INT3_IRQHandler
    mdr32f9qx_it.o(.ARM.exidx) refers to mdr32f9qx_it.o(i.EXT_INT4_IRQHandler) for i.EXT_INT4_IRQHandler
    delay.o(i._ZN5DELAY8delay_msEj) refers to delay.o(.data) for tickDelay
    delay.o(i._ZN5DELAY9delayInitEv) refers to system_mdr1986ve1t.o(i.SystemCoreClockUpdate) for SystemCoreClockUpdate
    delay.o(i._ZN5DELAY9delayInitEv) refers to aeabi_sdiv.o(.text) for __aeabi_uidivmod
    delay.o(i._ZN5DELAY9delayInitEv) refers to delay.o(i._Z16NVIC_SetPriority4IRQnj) for NVIC_SetPriority(IRQn, unsigned)
    delay.o(i._ZN5DELAY9delayInitEv) refers to system_mdr1986ve1t.o(.data) for SystemCoreClock
    delay.o(i._ZN5DELAYC1Ev) refers to delay.o(i._ZN5DELAY9delayInitEv) for DELAY::delayInit()
    delay.o(i._ZN5DELAYC1Ev) refers to delay.o(.data) for tickDelay
    delay.o(.ARM.exidx) refers to delay.o(i._ZN5DELAY9delayInitEv) for i._ZN5DELAY9delayInitEv
    delay.o(.ARM.exidx) refers to delay.o(i._ZN5DELAYC1Ev) for i._ZN5DELAYC1Ev
    delay.o(.ARM.exidx) refers to delay.o(i._ZN5DELAY8delay_msEj) for i._ZN5DELAY8delay_msEj
    delay.o(.ARM.exidx) refers to delay.o(i._Z16NVIC_SetPriority4IRQnj) for i._Z16NVIC_SetPriority4IRQnj
    max31865.o(i._ZN8MAX3186510clearFaultEv) refers to max31865.o(i._ZN8MAX3186513readRegister8Eh) for MAX31865::readRegister8(unsigned char)
    max31865.o(i._ZN8MAX3186510clearFaultEv) refers to max31865.o(i._ZN8MAX3186514writeRegister8Ehh) for MAX31865::writeRegister8(unsigned char, unsigned char)
    max31865.o(i._ZN8MAX3186510enable50HzEb) refers to max31865.o(i._ZN8MAX3186513readRegister8Eh) for MAX31865::readRegister8(unsigned char)
    max31865.o(i._ZN8MAX3186510enable50HzEb) refers to max31865.o(i._ZN8MAX3186514writeRegister8Ehh) for MAX31865::writeRegister8(unsigned char, unsigned char)
    max31865.o(i._ZN8MAX3186510enableBiasEb) refers to max31865.o(i._ZN8MAX3186513readRegister8Eh) for MAX31865::readRegister8(unsigned char)
    max31865.o(i._ZN8MAX3186510enableBiasEb) refers to max31865.o(i._ZN8MAX3186514writeRegister8Ehh) for MAX31865::writeRegister8(unsigned char, unsigned char)
    max31865.o(i._ZN8MAX3186510readAllRegEv) refers to max31865.o(i._ZN8MAX3186513readRegisterNEhPhh) for MAX31865::readRegisterN(unsigned char, unsigned char*, unsigned char)
    max31865.o(i._ZN8MAX3186510readAllRegEv) refers to max31865.o(.data) for allReg
    max31865.o(i._ZN8MAX3186511autoConvertEb) refers to max31865.o(i._ZN8MAX3186513readRegister8Eh) for MAX31865::readRegister8(unsigned char)
    max31865.o(i._ZN8MAX3186511autoConvertEb) refers to max31865.o(i._ZN8MAX3186514writeRegister8Ehh) for MAX31865::writeRegister8(unsigned char, unsigned char)
    max31865.o(i._ZN8MAX3186511temperatureEdd) refers to max31865.o(i._ZN8MAX318657readRTDEv) for MAX31865::readRTD()
    max31865.o(i._ZN8MAX3186511temperatureEdd) refers to dflti.o(.text) for __aeabi_ui2d
    max31865.o(i._ZN8MAX3186511temperatureEdd) refers to ddiv.o(.text) for __aeabi_ddiv
    max31865.o(i._ZN8MAX3186511temperatureEdd) refers to dmul.o(.text) for __aeabi_dmul
    max31865.o(i._ZN8MAX3186511temperatureEdd) refers to daddsub.o(.text) for __aeabi_dadd
    max31865.o(i._ZN8MAX3186511temperatureEdd) refers to sqrt.o(i.sqrt) for sqrt
    max31865.o(i._ZN8MAX3186511temperatureEdd) refers to drlef.o(x$fpl$drleqf) for __aeabi_cdrcmple
    max31865.o(i._ZN8MAX3186513readRegister8Eh) refers to max31865.o(i._ZN8MAX3186513readRegisterNEhPhh) for MAX31865::readRegisterN(unsigned char, unsigned char*, unsigned char)
    max31865.o(i._ZN8MAX3186513readRegisterNEhPhh) refers to port.o(i._ZN9PortMapIO6setLowEv) for PortMapIO::setLow()
    max31865.o(i._ZN8MAX3186513readRegisterNEhPhh) refers to spi.o(i._ZN3SPI8transmitEPh) for SPI::transmit(unsigned char*)
    max31865.o(i._ZN8MAX3186513readRegisterNEhPhh) refers to port.o(i._ZN9PortMapIO7setHighEv) for PortMapIO::setHigh()
    max31865.o(i._ZN8MAX3186514readRegister16Eh) refers to max31865.o(i._ZN8MAX3186513readRegisterNEhPhh) for MAX31865::readRegisterN(unsigned char, unsigned char*, unsigned char)
    max31865.o(i._ZN8MAX3186514writeRegister8Ehh) refers to port.o(i._ZN9PortMapIO6setLowEv) for PortMapIO::setLow()
    max31865.o(i._ZN8MAX3186514writeRegister8Ehh) refers to spi.o(i._ZN3SPI5writeEPhj) for SPI::write(unsigned char*, unsigned)
    max31865.o(i._ZN8MAX3186514writeRegister8Ehh) refers to port.o(i._ZN9PortMapIO7setHighEv) for PortMapIO::setHigh()
    max31865.o(i._ZN8MAX318655beginE17max31865_numwires) refers to max31865.o(i._ZN8MAX318658setWiresE17max31865_numwires) for MAX31865::setWires(max31865_numwires)
    max31865.o(i._ZN8MAX318655beginE17max31865_numwires) refers to max31865.o(i._ZN8MAX3186510enableBiasEb) for MAX31865::enableBias(bool)
    max31865.o(i._ZN8MAX318655beginE17max31865_numwires) refers to max31865.o(i._ZN8MAX3186511autoConvertEb) for MAX31865::autoConvert(bool)
    max31865.o(i._ZN8MAX318655beginE17max31865_numwires) refers to max31865.o(i._ZN8MAX3186510clearFaultEv) for MAX31865::clearFault()
    max31865.o(i._ZN8MAX318657readRTDEv) refers to max31865.o(i._ZN8MAX3186510clearFaultEv) for MAX31865::clearFault()
    max31865.o(i._ZN8MAX318657readRTDEv) refers to max31865.o(i._ZN8MAX3186510enableBiasEb) for MAX31865::enableBias(bool)
    max31865.o(i._ZN8MAX318657readRTDEv) refers to delay.o(i._ZN5DELAY8delay_msEj) for DELAY::delay_ms(unsigned)
    max31865.o(i._ZN8MAX318657readRTDEv) refers to max31865.o(i._ZN8MAX3186513readRegister8Eh) for MAX31865::readRegister8(unsigned char)
    max31865.o(i._ZN8MAX318657readRTDEv) refers to max31865.o(i._ZN8MAX3186514writeRegister8Ehh) for MAX31865::writeRegister8(unsigned char, unsigned char)
    max31865.o(i._ZN8MAX318657readRTDEv) refers to max31865.o(i._ZN8MAX3186514readRegister16Eh) for MAX31865::readRegister16(unsigned char)
    max31865.o(i._ZN8MAX318658setWiresE17max31865_numwires) refers to max31865.o(i._ZN8MAX3186513readRegister8Eh) for MAX31865::readRegister8(unsigned char)
    max31865.o(i._ZN8MAX318658setWiresE17max31865_numwires) refers to max31865.o(i._ZN8MAX3186514writeRegister8Ehh) for MAX31865::writeRegister8(unsigned char, unsigned char)
    max31865.o(i._ZN8MAX318659readFaultEv) refers to max31865.o(i._ZN8MAX3186513readRegister8Eh) for MAX31865::readRegister8(unsigned char)
    max31865.o(i._ZN8MAX31865C1EP3SPIP9PortMapIO) refers to spi.o(i._ZN3SPIC1Ev) for SPI::SPI()
    max31865.o(i._ZN8MAX31865C1EP3SPIP9PortMapIO) refers to port.o(i._ZN9PortMapIOC1Ev) for PortMapIO::PortMapIO()
    max31865.o(i._ZN8MAX31865C1EP3SPIP9PortMapIO) refers to delay.o(i._ZN5DELAYC1Ev) for DELAY::DELAY()
    max31865.o(.ARM.exidx) refers to max31865.o(i._ZN8MAX31865C1EP3SPIP9PortMapIO) for i._ZN8MAX31865C1EP3SPIP9PortMapIO
    max31865.o(.ARM.exidx) refers to max31865.o(i._ZN8MAX3186514writeRegister8Ehh) for i._ZN8MAX3186514writeRegister8Ehh
    max31865.o(.ARM.exidx) refers to max31865.o(i._ZN8MAX3186513readRegisterNEhPhh) for i._ZN8MAX3186513readRegisterNEhPhh
    max31865.o(.ARM.exidx) refers to max31865.o(i._ZN8MAX3186513readRegister8Eh) for i._ZN8MAX3186513readRegister8Eh
    max31865.o(.ARM.exidx) refers to max31865.o(i._ZN8MAX3186510clearFaultEv) for i._ZN8MAX3186510clearFaultEv
    max31865.o(.ARM.exidx) refers to max31865.o(i._ZN8MAX3186511autoConvertEb) for i._ZN8MAX3186511autoConvertEb
    max31865.o(.ARM.exidx) refers to max31865.o(i._ZN8MAX3186510enableBiasEb) for i._ZN8MAX3186510enableBiasEb
    max31865.o(.ARM.exidx) refers to max31865.o(i._ZN8MAX318658setWiresE17max31865_numwires) for i._ZN8MAX318658setWiresE17max31865_numwires
    max31865.o(.ARM.exidx) refers to max31865.o(i._ZN8MAX318655beginE17max31865_numwires) for i._ZN8MAX318655beginE17max31865_numwires
    max31865.o(.ARM.exidx) refers to max31865.o(i._ZN8MAX318659readFaultEv) for i._ZN8MAX318659readFaultEv
    max31865.o(.ARM.exidx) refers to max31865.o(i._ZN8MAX3186514readRegister16Eh) for i._ZN8MAX3186514readRegister16Eh
    max31865.o(.ARM.exidx) refers to max31865.o(i._ZN8MAX318657readRTDEv) for i._ZN8MAX318657readRTDEv
    max31865.o(.ARM.exidx) refers to max31865.o(i._ZN8MAX3186510enable50HzEb) for i._ZN8MAX3186510enable50HzEb
    max31865.o(.ARM.exidx) refers to max31865.o(i._ZN8MAX3186511temperatureEdd) for i._ZN8MAX3186511temperatureEdd
    max31865.o(.ARM.exidx) refers to max31865.o(i._ZN8MAX3186510readAllRegEv) for i._ZN8MAX3186510readAllRegEv
    adc.o(i._ZN3ADC10setChannelEj) refers to mdr32f9qx_adc.o(i.ADC1_SetChannel) for ADC1_SetChannel
    adc.o(i._ZN3ADC11setChannelsEj) refers to mdr32f9qx_adc.o(i.ADC1_SetChannels) for ADC1_SetChannels
    adc.o(i._ZN3ADC4initEv) refers to mdr32f9qx_rst_clk.o(i.RST_CLK_PCLKcmd) for RST_CLK_PCLKcmd
    adc.o(i._ZN3ADC4initEv) refers to mdr32f9qx_rst_clk.o(i.RST_CLK_ADCclkSelection) for RST_CLK_ADCclkSelection
    adc.o(i._ZN3ADC4initEv) refers to mdr32f9qx_rst_clk.o(i.RST_CLK_ADCclkPrescaler) for RST_CLK_ADCclkPrescaler
    adc.o(i._ZN3ADC4initEv) refers to mdr32f9qx_rst_clk.o(i.RST_CLK_ADCclkEnable) for RST_CLK_ADCclkEnable
    adc.o(i._ZN3ADC4initEv) refers to mdr32f9qx_adc.o(i.ADC_StructInit) for ADC_StructInit
    adc.o(i._ZN3ADC4initEv) refers to mdr32f9qx_adc.o(i.ADCx_StructInit) for ADCx_StructInit
    adc.o(i._ZN3ADC4initEv) refers to mdr32f9qx_adc.o(i.ADC_DeInit) for ADC_DeInit
    adc.o(i._ZN3ADC4initEv) refers to mdr32f9qx_adc.o(i.ADC_Init) for ADC_Init
    adc.o(i._ZN3ADC4initEv) refers to mdr32f9qx_adc.o(i.ADC1_Init) for ADC1_Init
    adc.o(i._ZN3ADC4initEv) refers to mdr32f9qx_adc.o(i.ADC1_Cmd) for ADC1_Cmd
    adc.o(i._ZN3ADC6IRQ_ONEv) refers to mdr32f9qx_adc.o(i.ADC1_ITConfig) for ADC1_ITConfig
    adc.o(i._ZN3ADC8readDataEv) refers to mdr32f9qx_adc.o(i.ADC1_GetResult) for ADC1_GetResult
    adc.o(i._ZN3ADCC1EP9PortMapIO) refers to port.o(i._ZN9PortMapIOC1Ev) for PortMapIO::PortMapIO()
    adc.o(i._ZN3ADCC1EP9PortMapIO) refers to mdr32f9qx_rst_clk.o(i.RST_CLK_PCLKcmd) for RST_CLK_PCLKcmd
    adc.o(i._ZN3ADCC1Ev) refers to port.o(i._ZN9PortMapIOC1Ev) for PortMapIO::PortMapIO()
    adc.o(i._ZN3ADCC1Ev) refers to mdr32f9qx_rst_clk.o(i.RST_CLK_PCLKcmd) for RST_CLK_PCLKcmd
    adc.o(.ARM.exidx) refers to adc.o(i._ZN3ADCC1Ev) for i._ZN3ADCC1Ev
    adc.o(.ARM.exidx) refers to adc.o(i._ZN3ADCC1EP9PortMapIO) for i._ZN3ADCC1EP9PortMapIO
    adc.o(.ARM.exidx) refers to adc.o(i._ZN3ADC4initEv) for i._ZN3ADC4initEv
    adc.o(.ARM.exidx) refers to adc.o(i._ZN3ADC6IRQ_ONEv) for i._ZN3ADC6IRQ_ONEv
    adc.o(.ARM.exidx) refers to adc.o(i._ZN3ADC10setChannelEj) for i._ZN3ADC10setChannelEj
    adc.o(.ARM.exidx) refers to adc.o(i._ZN3ADC11setChannelsEj) for i._ZN3ADC11setChannelsEj
    adc.o(.ARM.exidx) refers to adc.o(i._ZN3ADC5StartEv) for i._ZN3ADC5StartEv
    adc.o(.ARM.exidx) refers to adc.o(i._ZN3ADC4StopEv) for i._ZN3ADC4StopEv
    adc.o(.ARM.exidx) refers to adc.o(i._ZN3ADC23switchToSinglConversionEv) for i._ZN3ADC23switchToSinglConversionEv
    adc.o(.ARM.exidx) refers to adc.o(i._ZN3ADC25switchToCicliclConversionEv) for i._ZN3ADC25switchToCicliclConversionEv
    adc.o(.ARM.exidx) refers to adc.o(i._ZN3ADC8readDataEv) for i._ZN3ADC8readDataEv
    uart.o(i._ZN4UART10sendStringEPc) refers to uart.o(i._ZN4UART8sendByteEh) for UART::sendByte(unsigned char)
    uart.o(i._ZN4UART10sendStringEPc) refers to mdr32f9qx_uart.o(i.UART_GetFlagStatus) for UART_GetFlagStatus
    uart.o(i._ZN4UART8sendByteEh) refers to mdr32f9qx_uart.o(i.UART_GetFlagStatus) for UART_GetFlagStatus
    uart.o(i._ZN4UART8sendByteEh) refers to mdr32f9qx_uart.o(i.UART_SendData) for UART_SendData
    uart.o(i._ZN4UART9enableIRQEv) refers to uart.o(i._Z14NVIC_EnableIRQ4IRQn) for NVIC_EnableIRQ(IRQn)
    uart.o(i._ZN4UART9sendBytesEPht) refers to uart.o(i._ZN4UART8sendByteEh) for UART::sendByte(unsigned char)
    uart.o(i._ZN4UART9sendBytesEPht) refers to mdr32f9qx_uart.o(i.UART_GetFlagStatus) for UART_GetFlagStatus
    uart.o(i._ZN4UARTC1EP16MDR_UART_TypeDefjttttt) refers to mdr32f9qx_uart.o(i.UART_DeInit) for UART_DeInit
    uart.o(i._ZN4UARTC1EP16MDR_UART_TypeDefjttttt) refers to mdr32f9qx_uart.o(i.UART_StructInit) for UART_StructInit
    uart.o(i._ZN4UARTC1EP16MDR_UART_TypeDefjttttt) refers to mdr32f9qx_rst_clk.o(i.RST_CLK_PCLKcmd) for RST_CLK_PCLKcmd
    uart.o(i._ZN4UARTC1EP16MDR_UART_TypeDefjttttt) refers to mdr32f9qx_uart.o(i.UART_Init) for UART_Init
    uart.o(i._ZN4UARTC1EP16MDR_UART_TypeDefjttttt) refers to mdr32f9qx_uart.o(i.UART_BRGInit) for UART_BRGInit
    uart.o(i._ZN4UARTC1EP16MDR_UART_TypeDefjttttt) refers to mdr32f9qx_uart.o(i.UART_ITConfig) for UART_ITConfig
    uart.o(i._ZN4UARTC1EP16MDR_UART_TypeDefjttttt) refers to mdr32f9qx_uart.o(i.UART_Cmd) for UART_Cmd
    uart.o(.ARM.exidx) refers to uart.o(i._ZN4UARTC1EP16MDR_UART_TypeDefjttttt) for i._ZN4UARTC1EP16MDR_UART_TypeDefjttttt
    uart.o(.ARM.exidx) refers to uart.o(i._ZN4UART8ITConfigEP16MDR_UART_TypeDefj15FunctionalState) for i._ZN4UART8ITConfigEP16MDR_UART_TypeDefj15FunctionalState
    uart.o(.ARM.exidx) refers to uart.o(i._ZN4UART9enableIRQEv) for i._ZN4UART9enableIRQEv
    uart.o(.ARM.exidx) refers to uart.o(i._ZN4UART8sendByteEh) for i._ZN4UART8sendByteEh
    uart.o(.ARM.exidx) refers to uart.o(i._ZN4UART9sendBytesEPht) for i._ZN4UART9sendBytesEPht
    uart.o(.ARM.exidx) refers to uart.o(i._ZN4UART10sendStringEPc) for i._ZN4UART10sendStringEPc
    uart.o(.ARM.exidx) refers to uart.o(i._Z14NVIC_EnableIRQ4IRQn) for i._Z14NVIC_EnableIRQ4IRQn
    hef4051.o(i._ZN7HEF405110selectLineEh) refers to port.o(i._ZN9PortMapIO7setHighEv) for PortMapIO::setHigh()
    hef4051.o(i._ZN7HEF405110selectLineEh) refers to port.o(i._ZN9PortMapIO6setLowEv) for PortMapIO::setLow()
    hef4051.o(i._ZN7HEF40512ENEv) refers to port.o(i._ZN9PortMapIO6setLowEv) for PortMapIO::setLow()
    hef4051.o(i._ZN7HEF40513DESEv) refers to port.o(i._ZN9PortMapIO7setHighEv) for PortMapIO::setHigh()
    hef4051.o(i._ZN7HEF4051C1EP9PortMapIOS1_S1_S1_) refers to port.o(i._ZN9PortMapIOC1Ev) for PortMapIO::PortMapIO()
    hef4051.o(.ARM.exidx) refers to hef4051.o(i._ZN7HEF4051C1EP9PortMapIOS1_S1_S1_) for i._ZN7HEF4051C1EP9PortMapIOS1_S1_S1_
    hef4051.o(.ARM.exidx) refers to hef4051.o(i._ZN7HEF405110selectLineEh) for i._ZN7HEF405110selectLineEh
    hef4051.o(.ARM.exidx) refers to hef4051.o(i._ZN7HEF40512ENEv) for i._ZN7HEF40512ENEv
    hef4051.o(.ARM.exidx) refers to hef4051.o(i._ZN7HEF40513DESEv) for i._ZN7HEF40513DESEv
    rcc.o(i._ZN3RCC11setSysClockEh) refers to mdr32f9qx_rst_clk.o(i.RST_CLK_HSIstatus) for RST_CLK_HSIstatus
    rcc.o(i._ZN3RCC11setSysClockEh) refers to mdr32f9qx_rst_clk.o(i.RST_CLK_CPUclkSelection) for RST_CLK_CPUclkSelection
    rcc.o(i._ZN3RCC11setSysClockEh) refers to mdr32f9qx_rst_clk.o(i.RST_CLK_HSEconfig) for RST_CLK_HSEconfig
    rcc.o(i._ZN3RCC11setSysClockEh) refers to mdr32f9qx_rst_clk.o(i.RST_CLK_HSEstatus) for RST_CLK_HSEstatus
    rcc.o(i._ZN3RCC11setSysClockEh) refers to aeabi_sdiv.o(.text) for __aeabi_uidivmod
    rcc.o(i._ZN3RCC11setSysClockEh) refers to mdr32f9qx_rst_clk.o(i.RST_CLK_CPU_PLLconfig) for RST_CLK_CPU_PLLconfig
    rcc.o(i._ZN3RCC11setSysClockEh) refers to mdr32f9qx_rst_clk.o(i.RST_CLK_CPU_PLLcmd) for RST_CLK_CPU_PLLcmd
    rcc.o(i._ZN3RCC11setSysClockEh) refers to mdr32f9qx_rst_clk.o(i.RST_CLK_CPUclkPrescaler) for RST_CLK_CPUclkPrescaler
    rcc.o(i._ZN3RCC11setSysClockEh) refers to mdr32f9qx_rst_clk.o(i.RST_CLK_CPU_PLLuse) for RST_CLK_CPU_PLLuse
    rcc.o(i._ZN3RCC11setSysClockEh) refers to system_mdr1986ve1t.o(i.SystemCoreClockUpdate) for SystemCoreClockUpdate
    rcc.o(i._ZN3RCCC1Eh) refers to mdr32f9qx_rst_clk.o(i.RST_CLK_DeInit) for RST_CLK_DeInit
    rcc.o(i._ZN3RCCC1Eh) refers to rcc.o(i._ZN3RCC11setSysClockEh) for RCC::setSysClock(unsigned char)
    rcc.o(.ARM.exidx) refers to rcc.o(i._ZN3RCC11setSysClockEh) for i._ZN3RCC11setSysClockEh
    rcc.o(.ARM.exidx) refers to rcc.o(i._ZN3RCCC1Eh) for i._ZN3RCCC1Eh
    w25qxx.o(i.W25qxx_BlockToPage) refers to aeabi_sdiv.o(.text) for __aeabi_uidivmod
    w25qxx.o(i.W25qxx_BlockToPage) refers to w25qxx.o(.bss) for w25qxx
    w25qxx.o(i.W25qxx_EraseBlock) refers to delay.o(i._ZN5DELAY8delay_msEj) for DELAY::delay_ms(unsigned)
    w25qxx.o(i.W25qxx_EraseBlock) refers to w25qxx.o(i._Z22W25qxx_WaitForWriteEndv) for W25qxx_WaitForWriteEnd()
    w25qxx.o(i.W25qxx_EraseBlock) refers to w25qxx.o(i._Z18W25qxx_WriteEnablev) for W25qxx_WriteEnable()
    w25qxx.o(i.W25qxx_EraseBlock) refers to w25qxx.o(i._Z21W25qxx_SPI_EnableSS_mP16MDR_PORT_TypeDeft) for W25qxx_SPI_EnableSS_m(MDR_PORT_TypeDef*, unsigned short)
    w25qxx.o(i.W25qxx_EraseBlock) refers to w25qxx.o(i._Z10W25qxx_Spih) for W25qxx_Spi(unsigned char)
    w25qxx.o(i.W25qxx_EraseBlock) refers to w25qxx.o(i._Z22W25qxx_SPI_DisableSS_mP16MDR_PORT_TypeDeft) for W25qxx_SPI_DisableSS_m(MDR_PORT_TypeDef*, unsigned short)
    w25qxx.o(i.W25qxx_EraseBlock) refers to main.o(.data) for pause
    w25qxx.o(i.W25qxx_EraseBlock) refers to w25qxx.o(.bss) for w25qxx
    w25qxx.o(i.W25qxx_EraseChip) refers to delay.o(i._ZN5DELAY8delay_msEj) for DELAY::delay_ms(unsigned)
    w25qxx.o(i.W25qxx_EraseChip) refers to w25qxx.o(i._Z18W25qxx_WriteEnablev) for W25qxx_WriteEnable()
    w25qxx.o(i.W25qxx_EraseChip) refers to w25qxx.o(i._Z21W25qxx_SPI_EnableSS_mP16MDR_PORT_TypeDeft) for W25qxx_SPI_EnableSS_m(MDR_PORT_TypeDef*, unsigned short)
    w25qxx.o(i.W25qxx_EraseChip) refers to w25qxx.o(i._Z10W25qxx_Spih) for W25qxx_Spi(unsigned char)
    w25qxx.o(i.W25qxx_EraseChip) refers to w25qxx.o(i._Z22W25qxx_SPI_DisableSS_mP16MDR_PORT_TypeDeft) for W25qxx_SPI_DisableSS_m(MDR_PORT_TypeDef*, unsigned short)
    w25qxx.o(i.W25qxx_EraseChip) refers to w25qxx.o(i._Z22W25qxx_WaitForWriteEndv) for W25qxx_WaitForWriteEnd()
    w25qxx.o(i.W25qxx_EraseChip) refers to main.o(.data) for pause
    w25qxx.o(i.W25qxx_EraseChip) refers to w25qxx.o(.bss) for w25qxx
    w25qxx.o(i.W25qxx_EraseSector) refers to delay.o(i._ZN5DELAY8delay_msEj) for DELAY::delay_ms(unsigned)
    w25qxx.o(i.W25qxx_EraseSector) refers to w25qxx.o(i._Z22W25qxx_WaitForWriteEndv) for W25qxx_WaitForWriteEnd()
    w25qxx.o(i.W25qxx_EraseSector) refers to w25qxx.o(i._Z18W25qxx_WriteEnablev) for W25qxx_WriteEnable()
    w25qxx.o(i.W25qxx_EraseSector) refers to w25qxx.o(i._Z21W25qxx_SPI_EnableSS_mP16MDR_PORT_TypeDeft) for W25qxx_SPI_EnableSS_m(MDR_PORT_TypeDef*, unsigned short)
    w25qxx.o(i.W25qxx_EraseSector) refers to w25qxx.o(i._Z10W25qxx_Spih) for W25qxx_Spi(unsigned char)
    w25qxx.o(i.W25qxx_EraseSector) refers to w25qxx.o(i._Z22W25qxx_SPI_DisableSS_mP16MDR_PORT_TypeDeft) for W25qxx_SPI_DisableSS_m(MDR_PORT_TypeDef*, unsigned short)
    w25qxx.o(i.W25qxx_EraseSector) refers to main.o(.data) for pause
    w25qxx.o(i.W25qxx_EraseSector) refers to w25qxx.o(.bss) for w25qxx
    w25qxx.o(i.W25qxx_Init) refers to delay.o(i._ZN5DELAY8delay_msEj) for DELAY::delay_ms(unsigned)
    w25qxx.o(i.W25qxx_Init) refers to w25qxx.o(i._Z22W25qxx_SPI_DisableSS_mP16MDR_PORT_TypeDeft) for W25qxx_SPI_DisableSS_m(MDR_PORT_TypeDef*, unsigned short)
    w25qxx.o(i.W25qxx_Init) refers to w25qxx.o(i._Z13W25qxx_ReadIDv) for W25qxx_ReadID()
    w25qxx.o(i.W25qxx_Init) refers to ledind.o(i.__ARM_common_switch8) for __ARM_common_switch8
    w25qxx.o(i.W25qxx_Init) refers to aeabi_sdiv.o(.text) for __aeabi_uidivmod
    w25qxx.o(i.W25qxx_Init) refers to w25qxx.o(i._Z17W25qxx_ReadUniqIDv) for W25qxx_ReadUniqID()
    w25qxx.o(i.W25qxx_Init) refers to w25qxx.o(i._Z25W25qxx_ReadStatusRegisterh) for W25qxx_ReadStatusRegister(unsigned char)
    w25qxx.o(i.W25qxx_Init) refers to w25qxx.o(.bss) for w25qxx
    w25qxx.o(i.W25qxx_Init) refers to main.o(.data) for pause
    w25qxx.o(i.W25qxx_IsEmptyBlock) refers to delay.o(i._ZN5DELAY8delay_msEj) for DELAY::delay_ms(unsigned)
    w25qxx.o(i.W25qxx_IsEmptyBlock) refers to w25qxx.o(i._Z21W25qxx_SPI_EnableSS_mP16MDR_PORT_TypeDeft) for W25qxx_SPI_EnableSS_m(MDR_PORT_TypeDef*, unsigned short)
    w25qxx.o(i.W25qxx_IsEmptyBlock) refers to w25qxx.o(i._Z10W25qxx_Spih) for W25qxx_Spi(unsigned char)
    w25qxx.o(i.W25qxx_IsEmptyBlock) refers to w25qxx.o(i._Z15HAL_SPI_ReceiveP15MDR_SSP_TypeDefPhtt) for HAL_SPI_Receive(MDR_SSP_TypeDef*, unsigned char*, unsigned short, unsigned short)
    w25qxx.o(i.W25qxx_IsEmptyBlock) refers to w25qxx.o(i._Z22W25qxx_SPI_DisableSS_mP16MDR_PORT_TypeDeft) for W25qxx_SPI_DisableSS_m(MDR_PORT_TypeDef*, unsigned short)
    w25qxx.o(i.W25qxx_IsEmptyBlock) refers to main.o(.data) for pause
    w25qxx.o(i.W25qxx_IsEmptyBlock) refers to w25qxx.o(.bss) for w25qxx
    w25qxx.o(i.W25qxx_IsEmptyPage) refers to delay.o(i._ZN5DELAY8delay_msEj) for DELAY::delay_ms(unsigned)
    w25qxx.o(i.W25qxx_IsEmptyPage) refers to w25qxx.o(i._Z21W25qxx_SPI_EnableSS_mP16MDR_PORT_TypeDeft) for W25qxx_SPI_EnableSS_m(MDR_PORT_TypeDef*, unsigned short)
    w25qxx.o(i.W25qxx_IsEmptyPage) refers to w25qxx.o(i._Z10W25qxx_Spih) for W25qxx_Spi(unsigned char)
    w25qxx.o(i.W25qxx_IsEmptyPage) refers to w25qxx.o(i._Z15HAL_SPI_ReceiveP15MDR_SSP_TypeDefPhtt) for HAL_SPI_Receive(MDR_SSP_TypeDef*, unsigned char*, unsigned short, unsigned short)
    w25qxx.o(i.W25qxx_IsEmptyPage) refers to w25qxx.o(i._Z22W25qxx_SPI_DisableSS_mP16MDR_PORT_TypeDeft) for W25qxx_SPI_DisableSS_m(MDR_PORT_TypeDef*, unsigned short)
    w25qxx.o(i.W25qxx_IsEmptyPage) refers to main.o(.data) for pause
    w25qxx.o(i.W25qxx_IsEmptyPage) refers to w25qxx.o(.bss) for w25qxx
    w25qxx.o(i.W25qxx_IsEmptySector) refers to delay.o(i._ZN5DELAY8delay_msEj) for DELAY::delay_ms(unsigned)
    w25qxx.o(i.W25qxx_IsEmptySector) refers to w25qxx.o(i._Z21W25qxx_SPI_EnableSS_mP16MDR_PORT_TypeDeft) for W25qxx_SPI_EnableSS_m(MDR_PORT_TypeDef*, unsigned short)
    w25qxx.o(i.W25qxx_IsEmptySector) refers to w25qxx.o(i._Z10W25qxx_Spih) for W25qxx_Spi(unsigned char)
    w25qxx.o(i.W25qxx_IsEmptySector) refers to w25qxx.o(i._Z15HAL_SPI_ReceiveP15MDR_SSP_TypeDefPhtt) for HAL_SPI_Receive(MDR_SSP_TypeDef*, unsigned char*, unsigned short, unsigned short)
    w25qxx.o(i.W25qxx_IsEmptySector) refers to w25qxx.o(i._Z22W25qxx_SPI_DisableSS_mP16MDR_PORT_TypeDeft) for W25qxx_SPI_DisableSS_m(MDR_PORT_TypeDef*, unsigned short)
    w25qxx.o(i.W25qxx_IsEmptySector) refers to main.o(.data) for pause
    w25qxx.o(i.W25qxx_IsEmptySector) refers to w25qxx.o(.bss) for w25qxx
    w25qxx.o(i.W25qxx_PageToBlock) refers to aeabi_sdiv.o(.text) for __aeabi_uidivmod
    w25qxx.o(i.W25qxx_PageToBlock) refers to w25qxx.o(.bss) for w25qxx
    w25qxx.o(i.W25qxx_PageToSector) refers to aeabi_sdiv.o(.text) for __aeabi_uidivmod
    w25qxx.o(i.W25qxx_PageToSector) refers to w25qxx.o(.bss) for w25qxx
    w25qxx.o(i.W25qxx_ReadBlock) refers to w25qxx.o(i.W25qxx_BlockToPage) for W25qxx_BlockToPage
    w25qxx.o(i.W25qxx_ReadBlock) refers to aeabi_sdiv.o(.text) for __aeabi_uidivmod
    w25qxx.o(i.W25qxx_ReadBlock) refers to w25qxx.o(i.W25qxx_ReadPage) for W25qxx_ReadPage
    w25qxx.o(i.W25qxx_ReadBlock) refers to w25qxx.o(.bss) for w25qxx
    w25qxx.o(i.W25qxx_ReadByte) refers to delay.o(i._ZN5DELAY8delay_msEj) for DELAY::delay_ms(unsigned)
    w25qxx.o(i.W25qxx_ReadByte) refers to w25qxx.o(i._Z21W25qxx_SPI_EnableSS_mP16MDR_PORT_TypeDeft) for W25qxx_SPI_EnableSS_m(MDR_PORT_TypeDef*, unsigned short)
    w25qxx.o(i.W25qxx_ReadByte) refers to w25qxx.o(i._Z10W25qxx_Spih) for W25qxx_Spi(unsigned char)
    w25qxx.o(i.W25qxx_ReadByte) refers to w25qxx.o(i._Z22W25qxx_SPI_DisableSS_mP16MDR_PORT_TypeDeft) for W25qxx_SPI_DisableSS_m(MDR_PORT_TypeDef*, unsigned short)
    w25qxx.o(i.W25qxx_ReadByte) refers to main.o(.data) for pause
    w25qxx.o(i.W25qxx_ReadByte) refers to w25qxx.o(.bss) for w25qxx
    w25qxx.o(i.W25qxx_ReadBytes) refers to delay.o(i._ZN5DELAY8delay_msEj) for DELAY::delay_ms(unsigned)
    w25qxx.o(i.W25qxx_ReadBytes) refers to w25qxx.o(i._Z21W25qxx_SPI_EnableSS_mP16MDR_PORT_TypeDeft) for W25qxx_SPI_EnableSS_m(MDR_PORT_TypeDef*, unsigned short)
    w25qxx.o(i.W25qxx_ReadBytes) refers to w25qxx.o(i._Z10W25qxx_Spih) for W25qxx_Spi(unsigned char)
    w25qxx.o(i.W25qxx_ReadBytes) refers to w25qxx.o(i._Z15HAL_SPI_ReceiveP15MDR_SSP_TypeDefPhtt) for HAL_SPI_Receive(MDR_SSP_TypeDef*, unsigned char*, unsigned short, unsigned short)
    w25qxx.o(i.W25qxx_ReadBytes) refers to w25qxx.o(i._Z22W25qxx_SPI_DisableSS_mP16MDR_PORT_TypeDeft) for W25qxx_SPI_DisableSS_m(MDR_PORT_TypeDef*, unsigned short)
    w25qxx.o(i.W25qxx_ReadBytes) refers to main.o(.data) for pause
    w25qxx.o(i.W25qxx_ReadBytes) refers to w25qxx.o(.bss) for w25qxx
    w25qxx.o(i.W25qxx_ReadPage) refers to delay.o(i._ZN5DELAY8delay_msEj) for DELAY::delay_ms(unsigned)
    w25qxx.o(i.W25qxx_ReadPage) refers to w25qxx.o(i._Z21W25qxx_SPI_EnableSS_mP16MDR_PORT_TypeDeft) for W25qxx_SPI_EnableSS_m(MDR_PORT_TypeDef*, unsigned short)
    w25qxx.o(i.W25qxx_ReadPage) refers to w25qxx.o(i._Z10W25qxx_Spih) for W25qxx_Spi(unsigned char)
    w25qxx.o(i.W25qxx_ReadPage) refers to w25qxx.o(i._Z15HAL_SPI_ReceiveP15MDR_SSP_TypeDefPhtt) for HAL_SPI_Receive(MDR_SSP_TypeDef*, unsigned char*, unsigned short, unsigned short)
    w25qxx.o(i.W25qxx_ReadPage) refers to rt_memcpy.o(.text) for __aeabi_memcpy
    w25qxx.o(i.W25qxx_ReadPage) refers to w25qxx.o(i._Z22W25qxx_SPI_DisableSS_mP16MDR_PORT_TypeDeft) for W25qxx_SPI_DisableSS_m(MDR_PORT_TypeDef*, unsigned short)
    w25qxx.o(i.W25qxx_ReadPage) refers to main.o(.data) for pause
    w25qxx.o(i.W25qxx_ReadPage) refers to w25qxx.o(.bss) for w25qxx
    w25qxx.o(i.W25qxx_ReadSector) refers to w25qxx.o(i.W25qxx_SectorToPage) for W25qxx_SectorToPage
    w25qxx.o(i.W25qxx_ReadSector) refers to aeabi_sdiv.o(.text) for __aeabi_uidivmod
    w25qxx.o(i.W25qxx_ReadSector) refers to w25qxx.o(i.W25qxx_ReadPage) for W25qxx_ReadPage
    w25qxx.o(i.W25qxx_ReadSector) refers to w25qxx.o(.bss) for w25qxx
    w25qxx.o(i.W25qxx_ResetChip) refers to delay.o(i._ZN5DELAY8delay_msEj) for DELAY::delay_ms(unsigned)
    w25qxx.o(i.W25qxx_ResetChip) refers to w25qxx.o(i._Z21W25qxx_SPI_EnableSS_mP16MDR_PORT_TypeDeft) for W25qxx_SPI_EnableSS_m(MDR_PORT_TypeDef*, unsigned short)
    w25qxx.o(i.W25qxx_ResetChip) refers to w25qxx.o(i._Z10W25qxx_Spih) for W25qxx_Spi(unsigned char)
    w25qxx.o(i.W25qxx_ResetChip) refers to w25qxx.o(i._Z22W25qxx_SPI_DisableSS_mP16MDR_PORT_TypeDeft) for W25qxx_SPI_DisableSS_m(MDR_PORT_TypeDef*, unsigned short)
    w25qxx.o(i.W25qxx_ResetChip) refers to main.o(.data) for pause
    w25qxx.o(i.W25qxx_SectorToBlock) refers to aeabi_sdiv.o(.text) for __aeabi_uidivmod
    w25qxx.o(i.W25qxx_SectorToBlock) refers to w25qxx.o(.bss) for w25qxx
    w25qxx.o(i.W25qxx_SectorToPage) refers to aeabi_sdiv.o(.text) for __aeabi_uidivmod
    w25qxx.o(i.W25qxx_SectorToPage) refers to w25qxx.o(.bss) for w25qxx
    w25qxx.o(i.W25qxx_WriteBlock) refers to w25qxx.o(i.W25qxx_BlockToPage) for W25qxx_BlockToPage
    w25qxx.o(i.W25qxx_WriteBlock) refers to aeabi_sdiv.o(.text) for __aeabi_uidivmod
    w25qxx.o(i.W25qxx_WriteBlock) refers to w25qxx.o(i.W25qxx_WritePage) for W25qxx_WritePage
    w25qxx.o(i.W25qxx_WriteBlock) refers to w25qxx.o(.bss) for w25qxx
    w25qxx.o(i.W25qxx_WriteByte) refers to delay.o(i._ZN5DELAY8delay_msEj) for DELAY::delay_ms(unsigned)
    w25qxx.o(i.W25qxx_WriteByte) refers to w25qxx.o(i._Z22W25qxx_WaitForWriteEndv) for W25qxx_WaitForWriteEnd()
    w25qxx.o(i.W25qxx_WriteByte) refers to w25qxx.o(i._Z18W25qxx_WriteEnablev) for W25qxx_WriteEnable()
    w25qxx.o(i.W25qxx_WriteByte) refers to w25qxx.o(i._Z21W25qxx_SPI_EnableSS_mP16MDR_PORT_TypeDeft) for W25qxx_SPI_EnableSS_m(MDR_PORT_TypeDef*, unsigned short)
    w25qxx.o(i.W25qxx_WriteByte) refers to w25qxx.o(i._Z10W25qxx_Spih) for W25qxx_Spi(unsigned char)
    w25qxx.o(i.W25qxx_WriteByte) refers to w25qxx.o(i._Z22W25qxx_SPI_DisableSS_mP16MDR_PORT_TypeDeft) for W25qxx_SPI_DisableSS_m(MDR_PORT_TypeDef*, unsigned short)
    w25qxx.o(i.W25qxx_WriteByte) refers to main.o(.data) for pause
    w25qxx.o(i.W25qxx_WriteByte) refers to w25qxx.o(.bss) for w25qxx
    w25qxx.o(i.W25qxx_WritePage) refers to delay.o(i._ZN5DELAY8delay_msEj) for DELAY::delay_ms(unsigned)
    w25qxx.o(i.W25qxx_WritePage) refers to w25qxx.o(i._Z22W25qxx_WaitForWriteEndv) for W25qxx_WaitForWriteEnd()
    w25qxx.o(i.W25qxx_WritePage) refers to w25qxx.o(i._Z18W25qxx_WriteEnablev) for W25qxx_WriteEnable()
    w25qxx.o(i.W25qxx_WritePage) refers to w25qxx.o(i._Z21W25qxx_SPI_EnableSS_mP16MDR_PORT_TypeDeft) for W25qxx_SPI_EnableSS_m(MDR_PORT_TypeDef*, unsigned short)
    w25qxx.o(i.W25qxx_WritePage) refers to w25qxx.o(i._Z10W25qxx_Spih) for W25qxx_Spi(unsigned char)
    w25qxx.o(i.W25qxx_WritePage) refers to w25qxx.o(i._Z16HAL_SPI_TransmitP15MDR_SSP_TypeDefPhtt) for HAL_SPI_Transmit(MDR_SSP_TypeDef*, unsigned char*, unsigned short, unsigned short)
    w25qxx.o(i.W25qxx_WritePage) refers to w25qxx.o(i._Z22W25qxx_SPI_DisableSS_mP16MDR_PORT_TypeDeft) for W25qxx_SPI_DisableSS_m(MDR_PORT_TypeDef*, unsigned short)
    w25qxx.o(i.W25qxx_WritePage) refers to main.o(.data) for pause
    w25qxx.o(i.W25qxx_WritePage) refers to w25qxx.o(.bss) for w25qxx
    w25qxx.o(i.W25qxx_WriteSector) refers to w25qxx.o(i.W25qxx_SectorToPage) for W25qxx_SectorToPage
    w25qxx.o(i.W25qxx_WriteSector) refers to aeabi_sdiv.o(.text) for __aeabi_uidivmod
    w25qxx.o(i.W25qxx_WriteSector) refers to w25qxx.o(i.W25qxx_WritePage) for W25qxx_WritePage
    w25qxx.o(i.W25qxx_WriteSector) refers to w25qxx.o(.bss) for w25qxx
    w25qxx.o(i.W25qxx_WriteStatusRegister) refers to w25qxx.o(i._Z21W25qxx_SPI_EnableSS_mP16MDR_PORT_TypeDeft) for W25qxx_SPI_EnableSS_m(MDR_PORT_TypeDef*, unsigned short)
    w25qxx.o(i.W25qxx_WriteStatusRegister) refers to w25qxx.o(i._Z10W25qxx_Spih) for W25qxx_Spi(unsigned char)
    w25qxx.o(i.W25qxx_WriteStatusRegister) refers to w25qxx.o(i._Z22W25qxx_SPI_DisableSS_mP16MDR_PORT_TypeDeft) for W25qxx_SPI_DisableSS_m(MDR_PORT_TypeDef*, unsigned short)
    w25qxx.o(i.W25qxx_WriteStatusRegister) refers to w25qxx.o(.bss) for w25qxx
    w25qxx.o(i._Z10W25qxx_Spih) refers to mdr32f9qx_ssp.o(i.SSP_SendData) for SSP_SendData
    w25qxx.o(i._Z10W25qxx_Spih) refers to mdr32f9qx_ssp.o(i.SSP_GetFlagStatus) for SSP_GetFlagStatus
    w25qxx.o(i._Z10W25qxx_Spih) refers to mdr32f9qx_ssp.o(i.SSP_ReceiveData) for SSP_ReceiveData
    w25qxx.o(i._Z13W25qxx_ReadIDv) refers to w25qxx.o(i._Z21W25qxx_SPI_EnableSS_mP16MDR_PORT_TypeDeft) for W25qxx_SPI_EnableSS_m(MDR_PORT_TypeDef*, unsigned short)
    w25qxx.o(i._Z13W25qxx_ReadIDv) refers to w25qxx.o(i._Z10W25qxx_Spih) for W25qxx_Spi(unsigned char)
    w25qxx.o(i._Z13W25qxx_ReadIDv) refers to w25qxx.o(i._Z22W25qxx_SPI_DisableSS_mP16MDR_PORT_TypeDeft) for W25qxx_SPI_DisableSS_m(MDR_PORT_TypeDef*, unsigned short)
    w25qxx.o(i._Z15HAL_SPI_ReceiveP15MDR_SSP_TypeDefPhtt) refers to mdr32f9qx_ssp.o(i.SSP_SendData) for SSP_SendData
    w25qxx.o(i._Z15HAL_SPI_ReceiveP15MDR_SSP_TypeDefPhtt) refers to mdr32f9qx_ssp.o(i.SSP_GetFlagStatus) for SSP_GetFlagStatus
    w25qxx.o(i._Z15HAL_SPI_ReceiveP15MDR_SSP_TypeDefPhtt) refers to mdr32f9qx_ssp.o(i.SSP_ReceiveData) for SSP_ReceiveData
    w25qxx.o(i._Z16HAL_SPI_TransmitP15MDR_SSP_TypeDefPhtt) refers to mdr32f9qx_ssp.o(i.SSP_SendData) for SSP_SendData
    w25qxx.o(i._Z16HAL_SPI_TransmitP15MDR_SSP_TypeDefPhtt) refers to mdr32f9qx_ssp.o(i.SSP_GetFlagStatus) for SSP_GetFlagStatus
    w25qxx.o(i._Z16HAL_SPI_TransmitP15MDR_SSP_TypeDefPhtt) refers to mdr32f9qx_ssp.o(i.SSP_ReceiveData) for SSP_ReceiveData
    w25qxx.o(i._Z16HAL_SPI_TransmitP15MDR_SSP_TypeDefPhtt) refers to w25qxx.o(.bss) for testBuffWritePage
    w25qxx.o(i._Z17W25qxx_ReadUniqIDv) refers to w25qxx.o(i._Z21W25qxx_SPI_EnableSS_mP16MDR_PORT_TypeDeft) for W25qxx_SPI_EnableSS_m(MDR_PORT_TypeDef*, unsigned short)
    w25qxx.o(i._Z17W25qxx_ReadUniqIDv) refers to w25qxx.o(i._Z10W25qxx_Spih) for W25qxx_Spi(unsigned char)
    w25qxx.o(i._Z17W25qxx_ReadUniqIDv) refers to w25qxx.o(i._Z22W25qxx_SPI_DisableSS_mP16MDR_PORT_TypeDeft) for W25qxx_SPI_DisableSS_m(MDR_PORT_TypeDef*, unsigned short)
    w25qxx.o(i._Z17W25qxx_ReadUniqIDv) refers to w25qxx.o(.bss) for w25qxx
    w25qxx.o(i._Z18W25qxx_WriteEnablev) refers to w25qxx.o(i._Z21W25qxx_SPI_EnableSS_mP16MDR_PORT_TypeDeft) for W25qxx_SPI_EnableSS_m(MDR_PORT_TypeDef*, unsigned short)
    w25qxx.o(i._Z18W25qxx_WriteEnablev) refers to w25qxx.o(i._Z10W25qxx_Spih) for W25qxx_Spi(unsigned char)
    w25qxx.o(i._Z18W25qxx_WriteEnablev) refers to w25qxx.o(i._Z22W25qxx_SPI_DisableSS_mP16MDR_PORT_TypeDeft) for W25qxx_SPI_DisableSS_m(MDR_PORT_TypeDef*, unsigned short)
    w25qxx.o(i._Z18W25qxx_WriteEnablev) refers to delay.o(i._ZN5DELAY8delay_msEj) for DELAY::delay_ms(unsigned)
    w25qxx.o(i._Z18W25qxx_WriteEnablev) refers to main.o(.data) for pause
    w25qxx.o(i._Z19W25qxx_WriteDisablev) refers to w25qxx.o(i._Z21W25qxx_SPI_EnableSS_mP16MDR_PORT_TypeDeft) for W25qxx_SPI_EnableSS_m(MDR_PORT_TypeDef*, unsigned short)
    w25qxx.o(i._Z19W25qxx_WriteDisablev) refers to w25qxx.o(i._Z10W25qxx_Spih) for W25qxx_Spi(unsigned char)
    w25qxx.o(i._Z19W25qxx_WriteDisablev) refers to w25qxx.o(i._Z22W25qxx_SPI_DisableSS_mP16MDR_PORT_TypeDeft) for W25qxx_SPI_DisableSS_m(MDR_PORT_TypeDef*, unsigned short)
    w25qxx.o(i._Z19W25qxx_WriteDisablev) refers to delay.o(i._ZN5DELAY8delay_msEj) for DELAY::delay_ms(unsigned)
    w25qxx.o(i._Z19W25qxx_WriteDisablev) refers to main.o(.data) for pause
    w25qxx.o(i._Z22W25qxx_WaitForWriteEndv) refers to delay.o(i._ZN5DELAY8delay_msEj) for DELAY::delay_ms(unsigned)
    w25qxx.o(i._Z22W25qxx_WaitForWriteEndv) refers to w25qxx.o(i._Z21W25qxx_SPI_EnableSS_mP16MDR_PORT_TypeDeft) for W25qxx_SPI_EnableSS_m(MDR_PORT_TypeDef*, unsigned short)
    w25qxx.o(i._Z22W25qxx_WaitForWriteEndv) refers to w25qxx.o(i._Z10W25qxx_Spih) for W25qxx_Spi(unsigned char)
    w25qxx.o(i._Z22W25qxx_WaitForWriteEndv) refers to w25qxx.o(i._Z22W25qxx_SPI_DisableSS_mP16MDR_PORT_TypeDeft) for W25qxx_SPI_DisableSS_m(MDR_PORT_TypeDef*, unsigned short)
    w25qxx.o(i._Z22W25qxx_WaitForWriteEndv) refers to main.o(.data) for pause
    w25qxx.o(i._Z22W25qxx_WaitForWriteEndv) refers to w25qxx.o(.bss) for w25qxx
    w25qxx.o(i._Z25W25qxx_ReadStatusRegisterh) refers to w25qxx.o(i._Z21W25qxx_SPI_EnableSS_mP16MDR_PORT_TypeDeft) for W25qxx_SPI_EnableSS_m(MDR_PORT_TypeDef*, unsigned short)
    w25qxx.o(i._Z25W25qxx_ReadStatusRegisterh) refers to w25qxx.o(i._Z10W25qxx_Spih) for W25qxx_Spi(unsigned char)
    w25qxx.o(i._Z25W25qxx_ReadStatusRegisterh) refers to w25qxx.o(i._Z22W25qxx_SPI_DisableSS_mP16MDR_PORT_TypeDeft) for W25qxx_SPI_DisableSS_m(MDR_PORT_TypeDef*, unsigned short)
    w25qxx.o(i._Z25W25qxx_ReadStatusRegisterh) refers to w25qxx.o(.bss) for w25qxx
    w25qxx.o(.ARM.exidx) refers to w25qxx.o(i._Z10W25qxx_Spih) for i._Z10W25qxx_Spih
    w25qxx.o(.ARM.exidx) refers to w25qxx.o(i._Z15HAL_SPI_ReceiveP15MDR_SSP_TypeDefPhtt) for i._Z15HAL_SPI_ReceiveP15MDR_SSP_TypeDefPhtt
    w25qxx.o(.ARM.exidx) refers to w25qxx.o(i._Z16HAL_SPI_TransmitP15MDR_SSP_TypeDefPhtt) for i._Z16HAL_SPI_TransmitP15MDR_SSP_TypeDefPhtt
    w25qxx.o(.ARM.exidx) refers to w25qxx.o(i._Z21W25qxx_SPI_EnableSS_mP16MDR_PORT_TypeDeft) for i._Z21W25qxx_SPI_EnableSS_mP16MDR_PORT_TypeDeft
    w25qxx.o(.ARM.exidx) refers to w25qxx.o(i._Z22W25qxx_SPI_DisableSS_mP16MDR_PORT_TypeDeft) for i._Z22W25qxx_SPI_DisableSS_mP16MDR_PORT_TypeDeft
    w25qxx.o(.ARM.exidx) refers to w25qxx.o(i._Z13W25qxx_ReadIDv) for i._Z13W25qxx_ReadIDv
    w25qxx.o(.ARM.exidx) refers to w25qxx.o(i._Z17W25qxx_ReadUniqIDv) for i._Z17W25qxx_ReadUniqIDv
    w25qxx.o(.ARM.exidx) refers to w25qxx.o(i._Z18W25qxx_WriteEnablev) for i._Z18W25qxx_WriteEnablev
    w25qxx.o(.ARM.exidx) refers to w25qxx.o(i._Z19W25qxx_WriteDisablev) for i._Z19W25qxx_WriteDisablev
    w25qxx.o(.ARM.exidx) refers to w25qxx.o(i._Z25W25qxx_ReadStatusRegisterh) for i._Z25W25qxx_ReadStatusRegisterh
    w25qxx.o(.ARM.exidx) refers to w25qxx.o(i.W25qxx_WriteStatusRegister) for i.W25qxx_WriteStatusRegister
    w25qxx.o(.ARM.exidx) refers to w25qxx.o(i._Z22W25qxx_WaitForWriteEndv) for i._Z22W25qxx_WaitForWriteEndv
    w25qxx.o(.ARM.exidx) refers to w25qxx.o(i.W25qxx_ResetChip) for i.W25qxx_ResetChip
    w25qxx.o(.ARM.exidx) refers to w25qxx.o(i.W25qxx_Init) for i.W25qxx_Init
    w25qxx.o(.ARM.exidx) refers to w25qxx.o(i.W25qxx_EraseChip) for i.W25qxx_EraseChip
    w25qxx.o(.ARM.exidx) refers to w25qxx.o(i.W25qxx_EraseSector) for i.W25qxx_EraseSector
    w25qxx.o(.ARM.exidx) refers to w25qxx.o(i.W25qxx_EraseBlock) for i.W25qxx_EraseBlock
    w25qxx.o(.ARM.exidx) refers to w25qxx.o(i.W25qxx_PageToSector) for i.W25qxx_PageToSector
    w25qxx.o(.ARM.exidx) refers to w25qxx.o(i.W25qxx_PageToBlock) for i.W25qxx_PageToBlock
    w25qxx.o(.ARM.exidx) refers to w25qxx.o(i.W25qxx_SectorToBlock) for i.W25qxx_SectorToBlock
    w25qxx.o(.ARM.exidx) refers to w25qxx.o(i.W25qxx_SectorToPage) for i.W25qxx_SectorToPage
    w25qxx.o(.ARM.exidx) refers to w25qxx.o(i.W25qxx_BlockToPage) for i.W25qxx_BlockToPage
    w25qxx.o(.ARM.exidx) refers to w25qxx.o(i.W25qxx_IsEmptyPage) for i.W25qxx_IsEmptyPage
    w25qxx.o(.ARM.exidx) refers to w25qxx.o(i.W25qxx_IsEmptySector) for i.W25qxx_IsEmptySector
    w25qxx.o(.ARM.exidx) refers to w25qxx.o(i.W25qxx_IsEmptyBlock) for i.W25qxx_IsEmptyBlock
    w25qxx.o(.ARM.exidx) refers to w25qxx.o(i.W25qxx_WriteByte) for i.W25qxx_WriteByte
    w25qxx.o(.ARM.exidx) refers to w25qxx.o(i.W25qxx_WritePage) for i.W25qxx_WritePage
    w25qxx.o(.ARM.exidx) refers to w25qxx.o(i.W25qxx_WriteSector) for i.W25qxx_WriteSector
    w25qxx.o(.ARM.exidx) refers to w25qxx.o(i.W25qxx_WriteBlock) for i.W25qxx_WriteBlock
    w25qxx.o(.ARM.exidx) refers to w25qxx.o(i.W25qxx_ReadByte) for i.W25qxx_ReadByte
    w25qxx.o(.ARM.exidx) refers to w25qxx.o(i.W25qxx_ReadBytes) for i.W25qxx_ReadBytes
    w25qxx.o(.ARM.exidx) refers to w25qxx.o(i.W25qxx_ReadPage) for i.W25qxx_ReadPage
    w25qxx.o(.ARM.exidx) refers to w25qxx.o(i.W25qxx_ReadSector) for i.W25qxx_ReadSector
    w25qxx.o(.ARM.exidx) refers to w25qxx.o(i.W25qxx_ReadBlock) for i.W25qxx_ReadBlock
    startup_mdr1986ve1t.o(STACK) refers (Special) to heapauxi.o(.text) for __use_two_region_memory
    startup_mdr1986ve1t.o(HEAP) refers (Special) to heapauxi.o(.text) for __use_two_region_memory
    startup_mdr1986ve1t.o(RESET) refers (Special) to heapauxi.o(.text) for __use_two_region_memory
    startup_mdr1986ve1t.o(RESET) refers to startup_mdr1986ve1t.o(STACK) for __initial_sp
    startup_mdr1986ve1t.o(RESET) refers to startup_mdr1986ve1t.o(.text) for Reset_Handler
    startup_mdr1986ve1t.o(RESET) refers to mdr32f9qx_it.o(i.NMI_Handler) for NMI_Handler
    startup_mdr1986ve1t.o(RESET) refers to mdr32f9qx_it.o(i.HardFault_Handler) for HardFault_Handler
    startup_mdr1986ve1t.o(RESET) refers to mdr32f9qx_it.o(i.SVC_Handler) for SVC_Handler
    startup_mdr1986ve1t.o(RESET) refers to mdr32f9qx_it.o(i.PendSV_Handler) for PendSV_Handler
    startup_mdr1986ve1t.o(RESET) refers to mdr32f9qx_it.o(i.SysTick_Handler) for SysTick_Handler
    startup_mdr1986ve1t.o(RESET) refers to mdr32f9qx_it.o(i.USB_IRQHandler) for USB_IRQHandler
    startup_mdr1986ve1t.o(RESET) refers to mdr32f9qx_it.o(i.CAN1_IRQHandler) for CAN1_IRQHandler
    startup_mdr1986ve1t.o(RESET) refers to mdr32f9qx_it.o(i.CAN2_IRQHandler) for CAN2_IRQHandler
    startup_mdr1986ve1t.o(RESET) refers to mdr32f9qx_it.o(i.UART1_IRQHandler) for UART1_IRQHandler
    startup_mdr1986ve1t.o(RESET) refers to mdr32f9qx_it.o(i.UART2_IRQHandler) for UART2_IRQHandler
    startup_mdr1986ve1t.o(RESET) refers to mdr32f9qx_it.o(i.SSP1_IRQHandler) for SSP1_IRQHandler
    startup_mdr1986ve1t.o(RESET) refers to mdr32f9qx_it.o(i.POWER_IRQHandler) for POWER_IRQHandler
    startup_mdr1986ve1t.o(RESET) refers to mdr32f9qx_it.o(i.WWDG_IRQHandler) for WWDG_IRQHandler
    startup_mdr1986ve1t.o(RESET) refers to mdr32f9qx_it.o(i.TIMER1_IRQHandler) for TIMER1_IRQHandler
    startup_mdr1986ve1t.o(RESET) refers to mdr32f9qx_it.o(i.ADC_IRQHandler) for ADC_IRQHandler
    startup_mdr1986ve1t.o(RESET) refers to mdr32f9qx_it.o(i.SSP2_IRQHandler) for SSP2_IRQHandler
    startup_mdr1986ve1t.o(RESET) refers to mdr32f9qx_it.o(i.EXT_INT1_IRQHandler) for EXT_INT1_IRQHandler
    startup_mdr1986ve1t.o(RESET) refers to mdr32f9qx_it.o(i.EXT_INT2_IRQHandler) for EXT_INT2_IRQHandler
    startup_mdr1986ve1t.o(RESET) refers to mdr32f9qx_it.o(i.EXT_INT3_IRQHandler) for EXT_INT3_IRQHandler
    startup_mdr1986ve1t.o(RESET) refers to mdr32f9qx_it.o(i.EXT_INT4_IRQHandler) for EXT_INT4_IRQHandler
    startup_mdr1986ve1t.o(.text) refers (Special) to heapauxi.o(.text) for __use_two_region_memory
    startup_mdr1986ve1t.o(.text) refers to system_mdr1986ve1t.o(i.SystemInit) for SystemInit
    startup_mdr1986ve1t.o(.text) refers to __main.o(!!!main) for __main
    startup_mdr1986ve1t.o(.text) refers to startup_mdr1986ve1t.o(HEAP) for Heap_Mem
    startup_mdr1986ve1t.o(.text) refers to startup_mdr1986ve1t.o(STACK) for Stack_Mem
    system_mdr1986ve1t.o(i.SystemCoreClockUpdate) refers to aeabi_sdiv.o(.text) for __aeabi_uidivmod
    system_mdr1986ve1t.o(i.SystemCoreClockUpdate) refers to system_mdr1986ve1t.o(.data) for SystemCoreClock
    system_mdr1986ve1t.o(i.SystemInit) refers to system_mdr1986ve1t.o(i.SystemCoreClockUpdate) for SystemCoreClockUpdate
    mdr32f9qx_adc.o(i.ADC_GetFlagStatus) refers to mdr32f9qx_adc.o(i.ADC_GetStatus) for ADC_GetStatus
    mdr32f9qx_adc.o(i.ADC_GetITStatus) refers to mdr32f9qx_adc.o(i.ADC_GetStatus) for ADC_GetStatus
    mdr32f9qx_dma.o(i.DMA_CtrlInit) refers to mdr32f9qx_dma.o(i.DMA_CtrlDataInit) for DMA_CtrlDataInit
    mdr32f9qx_dma.o(i.DMA_CtrlInit) refers to mdr32f9qx_dma.o(EXECUTABLE_MEMORY_SECTION) for DMA_ControlTable
    mdr32f9qx_dma.o(i.DMA_GetFlagStatus) refers to ledind.o(i.__ARM_common_switch8) for __ARM_common_switch8
    mdr32f9qx_dma.o(i.DMA_Init) refers to mdr32f9qx_dma.o(i.DMA_CtrlDataInit) for DMA_CtrlDataInit
    mdr32f9qx_dma.o(i.DMA_Init) refers to mdr32f9qx_dma.o(EXECUTABLE_MEMORY_SECTION) for DMA_ControlTable
    mdr32f9qx_dma.o(i.DMA_SG_CtrlInit) refers to mdr32f9qx_dma.o(i.DMA_CtrlDataInit) for DMA_CtrlDataInit
    mdr32f9qx_dma.o(i.DMA_SG_Init) refers to mdr32f9qx_dma.o(i.DMA_CtrlDataInit) for DMA_CtrlDataInit
    mdr32f9qx_dma.o(i.DMA_SG_Init) refers to mdr32f9qx_dma.o(EXECUTABLE_MEMORY_SECTION) for DMA_ControlTable
    mdr32f9qx_rst_clk.o(i.RST_CLK_CPU_PLLstatus) refers to mdr32f9qx_rst_clk.o(i.RST_CLK_GetFlagStatus) for RST_CLK_GetFlagStatus
    mdr32f9qx_rst_clk.o(i.RST_CLK_DeInit) refers to mdr32f9qx_rst_clk.o(i.RST_CLK_WarmDeInit) for RST_CLK_WarmDeInit
    mdr32f9qx_rst_clk.o(i.RST_CLK_DeInit) refers to mdr32f9qx_rst_clk.o(i.RST_CLK_PCLKcmd) for RST_CLK_PCLKcmd
    mdr32f9qx_rst_clk.o(i.RST_CLK_GetClocksFreq) refers to aeabi_sdiv.o(.text) for __aeabi_uidivmod
    mdr32f9qx_rst_clk.o(i.RST_CLK_HSE2status) refers to mdr32f9qx_rst_clk.o(i.RST_CLK_GetFlagStatus) for RST_CLK_GetFlagStatus
    mdr32f9qx_rst_clk.o(i.RST_CLK_HSEstatus) refers to mdr32f9qx_rst_clk.o(i.RST_CLK_GetFlagStatus) for RST_CLK_GetFlagStatus
    mdr32f9qx_rst_clk.o(i.RST_CLK_HSIstatus) refers to mdr32f9qx_rst_clk.o(i.RST_CLK_GetFlagStatus) for RST_CLK_GetFlagStatus
    mdr32f9qx_rst_clk.o(i.RST_CLK_LSEstatus) refers to mdr32f9qx_rst_clk.o(i.RST_CLK_GetFlagStatus) for RST_CLK_GetFlagStatus
    mdr32f9qx_rst_clk.o(i.RST_CLK_LSIstatus) refers to mdr32f9qx_rst_clk.o(i.RST_CLK_GetFlagStatus) for RST_CLK_GetFlagStatus
    mdr32f9qx_rst_clk.o(i.RST_CLK_USB_PLLstatus) refers to mdr32f9qx_rst_clk.o(i.RST_CLK_GetFlagStatus) for RST_CLK_GetFlagStatus
    mdr32f9qx_rst_clk.o(i.RST_CLK_WarmDeInit) refers to mdr32f9qx_rst_clk.o(i.RST_CLK_HSIcmd) for RST_CLK_HSIcmd
    mdr32f9qx_rst_clk.o(i.RST_CLK_WarmDeInit) refers to mdr32f9qx_rst_clk.o(i.RST_CLK_HSIstatus) for RST_CLK_HSIstatus
    mdr32f9qx_rst_clk.o(i.RST_CLK_WarmDeInit) refers to mdr32f9qx_rst_clk.o(i.RST_CLK_CPUclkSelection) for RST_CLK_CPUclkSelection
    mdr32f9qx_uart.o(i.UART_Init) refers to mdr32f9qx_rst_clk.o(i.RST_CLK_GetClocksFreq) for RST_CLK_GetClocksFreq
    mdr32f9qx_uart.o(i.UART_Init) refers to aeabi_sdiv.o(.text) for __aeabi_uidivmod
    mdr32f9qx_uart.o(i.UART_IrDAConfig) refers to mdr32f9qx_rst_clk.o(i.RST_CLK_GetClocksFreq) for RST_CLK_GetClocksFreq
    mdr32f9qx_uart.o(i.UART_IrDAConfig) refers to aeabi_sdiv.o(.text) for __aeabi_uidivmod
    rt_memcpy.o(.text) refers to rt_memcpy.o(.emb_text) for __aeabi_memcpy4
    __main.o(!!!main) refers to __rtentry.o(.ARM.Collect$$rtentry$$00000000) for __rt_entry
    new.o(i._Znwj) refers to rt_new_handler_addr_intlibspace.o(.text) for __rt_new_handler_addr
    new.o(i._Znwj) refers to h1_alloc.o(.text) for malloc
    new.o(i._Znwj) refers to arm_newhandler_noexceptions.o(.text) for __default_new_handler()
    new.o(.ARM.exidx) refers to new.o(i._Znwj) for i._Znwj
    new.o(.ARM.exidx) refers to unwind_pr0.o(.text) for __aeabi_unwind_cpp_pr0
    new.o(.ARM.exidx) refers to new.o(.ARM.extab) for .extab._Znwj
    new.o(.ARM.extab) refers to arm_callunex_noexceptions.o(.text) for __cxa_call_unexpected
    new.o(.ARM.extab) refers to bad_alloc_dtor.o(.constdata__ZTISt9bad_alloc) for typeinfo for std::bad_alloc
    d2f.o(.text) refers (Special) to usenofp.o(x$fpl$usenofp) for __I$use$fp
    daddsub.o(.text) refers (Special) to usenofp.o(x$fpl$usenofp) for __I$use$fp
    ddiv.o(.text) refers (Special) to usenofp.o(x$fpl$usenofp) for __I$use$fp
    ddiv.o(.text) refers to ddiv.o(.constdata) for .constdata
    ddiv.o(.constdata) refers (Special) to usenofp.o(x$fpl$usenofp) for __I$use$fp
    dfixui.o(.text) refers (Special) to usenofp.o(x$fpl$usenofp) for __I$use$fp
    dflti.o(.text) refers (Special) to usenofp.o(x$fpl$usenofp) for __I$use$fp
    dmul.o(.text) refers (Special) to usenofp.o(x$fpl$usenofp) for __I$use$fp
    drlef.o(x$fpl$drleqf) refers (Special) to usenofp.o(x$fpl$usenofp) for __I$use$fp
    drlef.o(x$fpl$drleqf) refers to dcmpin.o(.text) for __fpl_dcmp_InfNaN
    ffixi.o(.text) refers (Special) to usenofp.o(x$fpl$usenofp) for __I$use$fp
    ffixui.o(.text) refers (Special) to usenofp.o(x$fpl$usenofp) for __I$use$fp
    fflti.o(.text) refers (Special) to usenofp.o(x$fpl$usenofp) for __I$use$fp
    frlef.o(x$fpl$frleqf) refers (Special) to usenofp.o(x$fpl$usenofp) for __I$use$fp
    frlef.o(x$fpl$frleqf) refers to fcmpin.o(.text) for __fpl_fcmp_InfNaN
    sqrt.o(i.__softfp_sqrt) refers (Special) to usenofp.o(x$fpl$usenofp) for __I$use$fp
    sqrt.o(i.__softfp_sqrt) refers to dsqrt.o(.text) for _dsqrt
    sqrt.o(i.__softfp_sqrt) refers to _rserrno.o(.text) for __set_errno
    sqrt.o(i.sqrt) refers (Special) to usenofp.o(x$fpl$usenofp) for __I$use$fp
    sqrt.o(i.sqrt) refers to dsqrt.o(.text) for _dsqrt
    sqrt.o(i.sqrt) refers to _rserrno.o(.text) for __set_errno
    sqrt_x.o(i.____softfp_sqrt$lsc) refers (Special) to usenofp.o(x$fpl$usenofp) for __I$use$fp
    sqrt_x.o(i.____softfp_sqrt$lsc) refers to dlef.o(x$fpl$dleqf) for __aeabi_cdcmple
    sqrt_x.o(i.____softfp_sqrt$lsc) refers to _rserrno.o(.text) for __set_errno
    sqrt_x.o(i.____softfp_sqrt$lsc) refers to dsqrt.o(.text) for _dsqrt
    sqrt_x.o(i.__sqrt$lsc) refers (Special) to usenofp.o(x$fpl$usenofp) for __I$use$fp
    sqrt_x.o(i.__sqrt$lsc) refers to dlef.o(x$fpl$dleqf) for __aeabi_cdcmple
    sqrt_x.o(i.__sqrt$lsc) refers to _rserrno.o(.text) for __set_errno
    sqrt_x.o(i.__sqrt$lsc) refers to dsqrt.o(.text) for _dsqrt
    __rtentry.o(.ARM.Collect$$rtentry$$00000000) refers (Special) to __rtentry2.o(.ARM.Collect$$rtentry$$0000000A) for __rt_entry_li
    __rtentry.o(.ARM.Collect$$rtentry$$00000000) refers (Special) to __rtentry2.o(.ARM.Collect$$rtentry$$0000000D) for __rt_entry_main
    __rtentry.o(.ARM.Collect$$rtentry$$00000000) refers (Special) to __rtentry2.o(.ARM.Collect$$rtentry$$0000000C) for __rt_entry_postli_1
    __rtentry.o(.ARM.Collect$$rtentry$$00000000) refers (Special) to __rtentry2.o(.ARM.Collect$$rtentry$$00000009) for __rt_entry_postsh_1
    __rtentry.o(.ARM.Collect$$rtentry$$00000000) refers (Special) to __rtentry2.o(.ARM.Collect$$rtentry$$00000002) for __rt_entry_presh_1
    __rtentry.o(.ARM.Collect$$rtentry$$00000000) refers (Special) to __rtentry4.o(.ARM.Collect$$rtentry$$00000004) for __rt_entry_sh
    aeabi_idiv0_sigfpe.o(.text) refers to rt_div0.o(.text) for __rt_div0
    rt_new_handler_addr.o(.text) refers to rt_new_handler_addr.o(.bss) for __rt_new_handler_addr_data
    rt_new_handler_addr_intlibspace.o(.text) refers to libspace.o(.bss) for __libspace_start
    malloc.o(.text) refers (Special) to hguard.o(.text) for __heap$guard
    malloc.o(.text) refers (Special) to init_alloc.o(.text) for _init_alloc
    malloc.o(.text) refers to rt_heap_descriptor_intlibspace.o(.text) for __rt_heap_descriptor
    h1_alloc.o(.text) refers (Special) to h1_init.o(.text) for __Heap_Initialize
    h1_alloc.o(.text) refers to rt_heap_descriptor_intlibspace.o(.text) for __rt_heap_descriptor
    h1_alloc.o(.text) refers to init_alloc.o(.text) for __Heap_Full
    h1_alloc_mt.o(.text) refers (Special) to h1_init.o(.text) for __Heap_Initialize
    h1_alloc_mt.o(.text) refers to init_alloc.o(.text) for __Heap_Full
    h1_alloc_mt.o(.text) refers to rt_heap_descriptor_intlibspace.o(.text) for __rt_heap_descriptor
    heap2.o(i._FDIterate) refers to heap2.o(.conststring) for .conststring
    heap2.o(i.___Heap_ProvideMemory$realtime) refers to fdtree.o(i._FDTree_Delete) for _FDTree_Delete
    heap2.o(i.___Heap_ProvideMemory$realtime) refers to fdtree.o(i._FDTree_Insert) for _FDTree_Insert
    heap2.o(i.___Heap_Stats$realtime) refers to heap2.o(i._Heap2_StatsIterate) for _Heap2_StatsIterate
    heap2.o(i.___Heap_Stats$realtime) refers to aeabi_sdiv.o(.text) for __aeabi_uidivmod
    heap2.o(i.___Heap_Valid$realtime) refers to heap2.o(i._FDIterate) for _FDIterate
    heap2.o(i.___Heap_Valid$realtime) refers to heap2.o(.conststring) for .conststring
    heap2.o(i._free$realtime) refers to rt_heap_descriptor_intlibspace.o(.text) for __rt_heap_descriptor
    heap2.o(i._free$realtime) refers to fdtree.o(i._FDTree_Delete) for _FDTree_Delete
    heap2.o(i._free$realtime) refers to fdtree.o(i._FDTree_Insert) for _FDTree_Insert
    heap2.o(i._malloc$realtime) refers to rt_heap_descriptor_intlibspace.o(.text) for __rt_heap_descriptor
    heap2.o(i._malloc$realtime) refers to fdtree.o(i._FDTree_FindFirst) for _FDTree_FindFirst
    heap2.o(i._malloc$realtime) refers to init_alloc.o(.text) for __Heap_Full
    heap2.o(i._malloc$realtime) refers to fdtree.o(i._FDTree_RemoveNode) for _FDTree_RemoveNode
    heap2.o(i._malloc$realtime) refers to fdtree.o(i._FDTree_Insert) for _FDTree_Insert
    heap2.o(i._posix_memalign$realtime) refers to rt_heap_descriptor_intlibspace.o(.text) for __rt_heap_descriptor
    heap2.o(i._posix_memalign$realtime) refers to fdtree.o(i._FDTree_FindFirst) for _FDTree_FindFirst
    heap2.o(i._posix_memalign$realtime) refers to init_alloc.o(.text) for __Heap_Full
    heap2.o(i._posix_memalign$realtime) refers to fdtree.o(i._FDTree_RemoveNode) for _FDTree_RemoveNode
    heap2.o(i._posix_memalign$realtime) refers to fdtree.o(i._FDTree_Insert) for _FDTree_Insert
    heap2.o(i._realloc$realtime) refers to rt_heap_descriptor_intlibspace.o(.text) for __rt_heap_descriptor
    heap2.o(i._realloc$realtime) refers to h1_free.o(.text) for free
    heap2.o(i._realloc$realtime) refers to h1_alloc.o(.text) for malloc
    heap2.o(i._realloc$realtime) refers to fdtree.o(i._FDTree_Delete) for _FDTree_Delete
    heap2.o(i._realloc$realtime) refers to fdtree.o(i._FDTree_Insert) for _FDTree_Insert
    heap2.o(i._realloc$realtime) refers to rt_memcpy.o(.emb_text) for __aeabi_memcpy4
    heap2mt.o(i._FDIterate) refers to heap2mt.o(.conststring) for .conststring
    heap2mt.o(i.___Heap_ProvideMemory$realtime$concurrent) refers to fdtree.o(i._FDTree_Delete) for _FDTree_Delete
    heap2mt.o(i.___Heap_ProvideMemory$realtime$concurrent) refers to fdtree.o(i._FDTree_Insert) for _FDTree_Insert
    heap2mt.o(i.___Heap_Stats$realtime$concurrent) refers to heap2mt.o(i._Heap2_StatsIterate) for _Heap2_StatsIterate
    heap2mt.o(i.___Heap_Stats$realtime$concurrent) refers to aeabi_sdiv.o(.text) for __aeabi_uidivmod
    heap2mt.o(i.___Heap_Valid$realtime$concurrent) refers to heap2mt.o(i._FDIterate) for _FDIterate
    heap2mt.o(i.___Heap_Valid$realtime$concurrent) refers to heap2mt.o(.conststring) for .conststring
    heap2mt.o(i._free$realtime$concurrent) refers to rt_heap_descriptor_intlibspace.o(.text) for __rt_heap_descriptor
    heap2mt.o(i._free$realtime$concurrent) refers to fdtree.o(i._FDTree_Delete) for _FDTree_Delete
    heap2mt.o(i._free$realtime$concurrent) refers to fdtree.o(i._FDTree_Insert) for _FDTree_Insert
    heap2mt.o(i._malloc$realtime$concurrent) refers to rt_heap_descriptor_intlibspace.o(.text) for __rt_heap_descriptor
    heap2mt.o(i._malloc$realtime$concurrent) refers to fdtree.o(i._FDTree_FindFirst) for _FDTree_FindFirst
    heap2mt.o(i._malloc$realtime$concurrent) refers to init_alloc.o(.text) for __Heap_Full
    heap2mt.o(i._malloc$realtime$concurrent) refers to fdtree.o(i._FDTree_RemoveNode) for _FDTree_RemoveNode
    heap2mt.o(i._malloc$realtime$concurrent) refers to fdtree.o(i._FDTree_Insert) for _FDTree_Insert
    heap2mt.o(i._posix_memalign$realtime$concurrent) refers to rt_heap_descriptor_intlibspace.o(.text) for __rt_heap_descriptor
    heap2mt.o(i._posix_memalign$realtime$concurrent) refers to fdtree.o(i._FDTree_FindFirst) for _FDTree_FindFirst
    heap2mt.o(i._posix_memalign$realtime$concurrent) refers to init_alloc.o(.text) for __Heap_Full
    heap2mt.o(i._posix_memalign$realtime$concurrent) refers to fdtree.o(i._FDTree_RemoveNode) for _FDTree_RemoveNode
    heap2mt.o(i._posix_memalign$realtime$concurrent) refers to fdtree.o(i._FDTree_Insert) for _FDTree_Insert
    heap2mt.o(i._realloc$realtime$concurrent) refers to rt_heap_descriptor_intlibspace.o(.text) for __rt_heap_descriptor
    heap2mt.o(i._realloc$realtime$concurrent) refers to h1_free.o(.text) for free
    heap2mt.o(i._realloc$realtime$concurrent) refers to h1_alloc.o(.text) for malloc
    heap2mt.o(i._realloc$realtime$concurrent) refers to fdtree.o(i._FDTree_Delete) for _FDTree_Delete
    heap2mt.o(i._realloc$realtime$concurrent) refers to fdtree.o(i._FDTree_Insert) for _FDTree_Insert
    heap2mt.o(i._realloc$realtime$concurrent) refers to rt_memcpy.o(.emb_text) for __aeabi_memcpy4
    _rserrno.o(.text) refers to rt_errno_addr_intlibspace.o(.text) for __aeabi_errno_addr
    arm_callunex_noexceptions.o(.ARM.exidx) refers to arm_callunex_noexceptions.o(.text) for .text
    arm_newhandler_noexceptions.o(.text) refers to arm_exceptions_terminate.o(.text) for std::terminate()
    arm_newhandler_noexceptions.o(.ARM.exidx) refers to arm_newhandler_noexceptions.o(.text) for .text
    bad_alloc_dtor.o(i._ZNSt9bad_allocD0Ev) refers to bad_alloc_dtor.o(i._ZNSt9bad_allocD1Ev) for std::bad_alloc::~bad_alloc()
    bad_alloc_dtor.o(i._ZNSt9bad_allocD0Ev) refers to delete.o(i._ZdlPv) for operator delete (void*)
    bad_alloc_dtor.o(.ARM.exidx) refers to bad_alloc_dtor.o(i._ZNSt9bad_allocD1Ev) for i._ZNSt9bad_allocD1Ev
    bad_alloc_dtor.o(.ARM.exidx) refers to bad_alloc_dtor.o(i._ZNSt9bad_allocD0Ev) for i._ZNSt9bad_allocD0Ev
    unwind_pr0.o(.text) refers to unwind_prcommon.o(.text) for __ARM_unwind_cpp_prcommon
    unwind_pr0.o(.ARM.exidx) refers to unwind_pr0.o(.text) for .text
    dcmpin.o(.text) refers (Special) to usenofp.o(x$fpl$usenofp) for __I$use$fp
    dcmpin.o(.text) refers to cmpret.o(.text) for __fpl_cmpreturn
    dcmpin.o(.text) refers to dnan2.o(.text) for __fpl_dcheck_NaN2
    dlef.o(x$fpl$dleqf) refers (Special) to usenofp.o(x$fpl$usenofp) for __I$use$fp
    dlef.o(x$fpl$dleqf) refers to dcmpin.o(.text) for __fpl_dcmp_InfNaN
    dsqrt.o(.text) refers (Special) to usenofp.o(x$fpl$usenofp) for __I$use$fp
    fcmpin.o(.text) refers (Special) to usenofp.o(x$fpl$usenofp) for __I$use$fp
    fcmpin.o(.text) refers to cmpret.o(.text) for __fpl_cmpreturn
    fcmpin.o(.text) refers to fnan2.o(.text) for __fpl_fcheck_NaN2
    libspace.o(.text) refers to libspace.o(.bss) for __libspace_start
    __rtentry2.o(.ARM.Collect$$rtentry$$00000008) refers to boardinit2.o(.text) for _platform_post_stackheap_init
    __rtentry2.o(.ARM.Collect$$rtentry$$0000000A) refers to libinit.o(.ARM.Collect$$libinit$$00000000) for __rt_lib_init
    __rtentry2.o(.ARM.Collect$$rtentry$$0000000B) refers to boardinit3.o(.text) for _platform_post_lib_init
    __rtentry2.o(.ARM.Collect$$rtentry$$0000000D) refers to main.o(i.main) for main
    __rtentry2.o(.ARM.Collect$$rtentry$$0000000D) refers to exit.o(.text) for exit
    __rtentry2.o(.ARM.exidx) refers to __rtentry2.o(.ARM.Collect$$rtentry$$00000001) for .ARM.Collect$$rtentry$$00000001
    __rtentry2.o(.ARM.exidx) refers to __rtentry2.o(.ARM.Collect$$rtentry$$00000008) for .ARM.Collect$$rtentry$$00000008
    __rtentry2.o(.ARM.exidx) refers to __rtentry2.o(.ARM.Collect$$rtentry$$0000000A) for .ARM.Collect$$rtentry$$0000000A
    __rtentry2.o(.ARM.exidx) refers to __rtentry2.o(.ARM.Collect$$rtentry$$0000000B) for .ARM.Collect$$rtentry$$0000000B
    __rtentry2.o(.ARM.exidx) refers to __rtentry2.o(.ARM.Collect$$rtentry$$0000000D) for .ARM.Collect$$rtentry$$0000000D
    __rtentry4.o(.ARM.Collect$$rtentry$$00000004) refers to sys_stackheap_outer.o(.text) for __user_setup_stackheap
    __rtentry4.o(.ARM.exidx) refers to __rtentry4.o(.ARM.Collect$$rtentry$$00000004) for .ARM.Collect$$rtentry$$00000004
    rt_div0.o(.text) refers to defsig_fpe_outer.o(.text) for __rt_SIGFPE
    rt_heap_descriptor.o(.text) refers to rt_heap_descriptor.o(.bss) for __rt_heap_descriptor_data
    rt_heap_descriptor_intlibspace.o(.text) refers to libspace.o(.bss) for __libspace_start
    rt_errno_addr.o(.text) refers to rt_errno_addr.o(.bss) for __aeabi_errno_addr_data
    rt_errno_addr_intlibspace.o(.text) refers to libspace.o(.bss) for __libspace_start
    init_alloc.o(.text) refers (Special) to hguard.o(.text) for __heap$guard
    init_alloc.o(.text) refers (Special) to libinit2.o(.ARM.Collect$$libinit$$00000005) for __rt_lib_init_heap_2
    init_alloc.o(.text) refers (Special) to maybetermalloc1.o(.emb_text) for _maybe_terminate_alloc
    init_alloc.o(.text) refers to h1_extend.o(.text) for __Heap_ProvideMemory
    init_alloc.o(.text) refers to defsig_rtmem_outer.o(.text) for __rt_SIGRTMEM
    init_alloc.o(.text) refers to rt_heap_descriptor_intlibspace.o(.text) for __rt_heap_descriptor
    init_alloc.o(.text) refers to h1_init.o(.text) for __Heap_Initialize
    free.o(.text) refers (Special) to hguard.o(.text) for __heap$guard
    free.o(.text) refers to rt_heap_descriptor_intlibspace.o(.text) for __rt_heap_descriptor
    h1_free.o(.text) refers to rt_heap_descriptor_intlibspace.o(.text) for __rt_heap_descriptor
    h1_free_mt.o(.text) refers to rt_heap_descriptor_intlibspace.o(.text) for __rt_heap_descriptor
    _get_argv.o(.text) refers (Special) to hrguard.o(.text) for __heap_region$guard
    _get_argv.o(.text) refers to h1_alloc.o(.text) for malloc
    _get_argv.o(.text) refers to defsig_rtmem_outer.o(.text) for __rt_SIGRTMEM
    _get_argv.o(.text) refers to sys_command.o(.text) for _sys_command_string
    libinit2.o(.ARM.Collect$$libinit$$00000005) refers (Weak) to init_alloc.o(.text) for _init_alloc
    libinit2.o(.ARM.Collect$$libinit$$00000010) refers to libinit2.o(.ARM.Collect$$libinit$$0000000F) for .ARM.Collect$$libinit$$0000000F
    libinit2.o(.ARM.Collect$$libinit$$00000012) refers to libinit2.o(.ARM.Collect$$libinit$$0000000F) for .ARM.Collect$$libinit$$0000000F
    libinit2.o(.ARM.Collect$$libinit$$00000014) refers to libinit2.o(.ARM.Collect$$libinit$$0000000F) for .ARM.Collect$$libinit$$0000000F
    libinit2.o(.ARM.Collect$$libinit$$00000016) refers to libinit2.o(.ARM.Collect$$libinit$$0000000F) for .ARM.Collect$$libinit$$0000000F
    libinit2.o(.ARM.Collect$$libinit$$00000018) refers to libinit2.o(.ARM.Collect$$libinit$$0000000F) for .ARM.Collect$$libinit$$0000000F
    libinit2.o(.ARM.Collect$$libinit$$00000026) refers to argv_veneer.o(.text) for __ARM_argv_veneer
    libinit2.o(.ARM.Collect$$libinit$$00000027) refers to argv_veneer.o(.text) for __ARM_argv_veneer
    delete.o(i._ZdlPv) refers to h1_free.o(.text) for free
    delete.o(.ARM.exidx) refers to delete.o(i._ZdlPv) for i._ZdlPv
    bad_alloc_what.o(.ARM.exidx) refers to bad_alloc_what.o(i._ZNKSt9bad_alloc4whatEv) for i._ZNKSt9bad_alloc4whatEv
    exception_dtor.o(i._ZNSt9exceptionD0Ev) refers to delete.o(i._ZdlPv) for operator delete (void*)
    exception_dtor.o(.ARM.exidx) refers to exception_dtor.o(i._ZNSt9exceptionD1Ev) for i._ZNSt9exceptionD1Ev
    exception_dtor.o(.ARM.exidx) refers to exception_dtor.o(i._ZNSt9exceptionD0Ev) for i._ZNSt9exceptionD0Ev
    lib_rtti_impl.o(i._ZN10__cxxabiv116__enum_type_infoD0Ev) refers to lib_rtti_impl.o(i._ZN10__cxxabiv116__enum_type_infoD1Ev) for __cxxabiv1::__enum_type_info::~__enum_type_info()
    lib_rtti_impl.o(i._ZN10__cxxabiv117__array_type_infoD0Ev) refers to lib_rtti_impl.o(i._ZN10__cxxabiv117__array_type_infoD1Ev) for __cxxabiv1::__array_type_info::~__array_type_info()
    lib_rtti_impl.o(i._ZN10__cxxabiv117__class_type_infoD0Ev) refers to lib_rtti_impl.o(i._ZN10__cxxabiv117__class_type_infoD1Ev) for __cxxabiv1::__class_type_info::~__class_type_info()
    lib_rtti_impl.o(i._ZN10__cxxabiv117__pbase_type_infoD0Ev) refers to lib_rtti_impl.o(i._ZN10__cxxabiv117__pbase_type_infoD1Ev) for __cxxabiv1::__pbase_type_info::~__pbase_type_info()
    lib_rtti_impl.o(i._ZN10__cxxabiv119__pointer_type_infoD0Ev) refers to lib_rtti_impl.o(i._ZN10__cxxabiv119__pointer_type_infoD1Ev) for __cxxabiv1::__pointer_type_info::~__pointer_type_info()
    lib_rtti_impl.o(i._ZN10__cxxabiv119__pointer_type_infoD1Ev) refers to lib_rtti_impl.o(i._ZN10__cxxabiv117__pbase_type_infoD1Ev) for __cxxabiv1::__pbase_type_info::~__pbase_type_info()
    lib_rtti_impl.o(i._ZN10__cxxabiv120__function_type_infoD0Ev) refers to lib_rtti_impl.o(i._ZN10__cxxabiv120__function_type_infoD1Ev) for __cxxabiv1::__function_type_info::~__function_type_info()
    lib_rtti_impl.o(i._ZN10__cxxabiv120__si_class_type_infoD0Ev) refers to lib_rtti_impl.o(i._ZN10__cxxabiv120__si_class_type_infoD1Ev) for __cxxabiv1::__si_class_type_info::~__si_class_type_info()
    lib_rtti_impl.o(i._ZN10__cxxabiv120__si_class_type_infoD1Ev) refers to lib_rtti_impl.o(i._ZN10__cxxabiv117__class_type_infoD1Ev) for __cxxabiv1::__class_type_info::~__class_type_info()
    lib_rtti_impl.o(i._ZN10__cxxabiv121__vmi_class_type_infoD0Ev) refers to lib_rtti_impl.o(i._ZN10__cxxabiv121__vmi_class_type_infoD1Ev) for __cxxabiv1::__vmi_class_type_info::~__vmi_class_type_info()
    lib_rtti_impl.o(i._ZN10__cxxabiv121__vmi_class_type_infoD1Ev) refers to lib_rtti_impl.o(i._ZN10__cxxabiv117__class_type_infoD1Ev) for __cxxabiv1::__class_type_info::~__class_type_info()
    lib_rtti_impl.o(i._ZN10__cxxabiv123__fundamental_type_infoD0Ev) refers to lib_rtti_impl.o(i._ZN10__cxxabiv123__fundamental_type_infoD1Ev) for __cxxabiv1::__fundamental_type_info::~__fundamental_type_info()
    lib_rtti_impl.o(i._ZN10__cxxabiv129__pointer_to_member_type_infoD0Ev) refers to lib_rtti_impl.o(i._ZN10__cxxabiv129__pointer_to_member_type_infoD1Ev) for __cxxabiv1::__pointer_to_member_type_info::~__pointer_to_member_type_info()
    lib_rtti_impl.o(i._ZN10__cxxabiv129__pointer_to_member_type_infoD1Ev) refers to lib_rtti_impl.o(i._ZN10__cxxabiv117__pbase_type_infoD1Ev) for __cxxabiv1::__pbase_type_info::~__pbase_type_info()
    lib_rtti_impl.o(.ARM.exidx) refers to lib_rtti_impl.o(i._ZN10__cxxabiv123__fundamental_type_infoD1Ev) for i._ZN10__cxxabiv123__fundamental_type_infoD1Ev
    lib_rtti_impl.o(.ARM.exidx) refers to lib_rtti_impl.o(i._ZN10__cxxabiv123__fundamental_type_infoD0Ev) for i._ZN10__cxxabiv123__fundamental_type_infoD0Ev
    lib_rtti_impl.o(.ARM.exidx) refers to lib_rtti_impl.o(i._ZN10__cxxabiv117__array_type_infoD1Ev) for i._ZN10__cxxabiv117__array_type_infoD1Ev
    lib_rtti_impl.o(.ARM.exidx) refers to lib_rtti_impl.o(i._ZN10__cxxabiv117__array_type_infoD0Ev) for i._ZN10__cxxabiv117__array_type_infoD0Ev
    lib_rtti_impl.o(.ARM.exidx) refers to lib_rtti_impl.o(i._ZN10__cxxabiv120__function_type_infoD1Ev) for i._ZN10__cxxabiv120__function_type_infoD1Ev
    lib_rtti_impl.o(.ARM.exidx) refers to lib_rtti_impl.o(i._ZN10__cxxabiv120__function_type_infoD0Ev) for i._ZN10__cxxabiv120__function_type_infoD0Ev
    lib_rtti_impl.o(.ARM.exidx) refers to lib_rtti_impl.o(i._ZN10__cxxabiv116__enum_type_infoD1Ev) for i._ZN10__cxxabiv116__enum_type_infoD1Ev
    lib_rtti_impl.o(.ARM.exidx) refers to lib_rtti_impl.o(i._ZN10__cxxabiv116__enum_type_infoD0Ev) for i._ZN10__cxxabiv116__enum_type_infoD0Ev
    lib_rtti_impl.o(.ARM.exidx) refers to lib_rtti_impl.o(i._ZN10__cxxabiv117__class_type_infoD1Ev) for i._ZN10__cxxabiv117__class_type_infoD1Ev
    lib_rtti_impl.o(.ARM.exidx) refers to lib_rtti_impl.o(i._ZN10__cxxabiv117__class_type_infoD0Ev) for i._ZN10__cxxabiv117__class_type_infoD0Ev
    lib_rtti_impl.o(.ARM.exidx) refers to lib_rtti_impl.o(i._ZN10__cxxabiv120__si_class_type_infoD1Ev) for i._ZN10__cxxabiv120__si_class_type_infoD1Ev
    lib_rtti_impl.o(.ARM.exidx) refers to lib_rtti_impl.o(i._ZN10__cxxabiv120__si_class_type_infoD0Ev) for i._ZN10__cxxabiv120__si_class_type_infoD0Ev
    lib_rtti_impl.o(.ARM.exidx) refers to lib_rtti_impl.o(i._ZN10__cxxabiv121__vmi_class_type_infoD1Ev) for i._ZN10__cxxabiv121__vmi_class_type_infoD1Ev
    lib_rtti_impl.o(.ARM.exidx) refers to lib_rtti_impl.o(i._ZN10__cxxabiv121__vmi_class_type_infoD0Ev) for i._ZN10__cxxabiv121__vmi_class_type_infoD0Ev
    lib_rtti_impl.o(.ARM.exidx) refers to lib_rtti_impl.o(i._ZN10__cxxabiv117__pbase_type_infoD1Ev) for i._ZN10__cxxabiv117__pbase_type_infoD1Ev
    lib_rtti_impl.o(.ARM.exidx) refers to lib_rtti_impl.o(i._ZN10__cxxabiv117__pbase_type_infoD0Ev) for i._ZN10__cxxabiv117__pbase_type_infoD0Ev
    lib_rtti_impl.o(.ARM.exidx) refers to lib_rtti_impl.o(i._ZN10__cxxabiv119__pointer_type_infoD1Ev) for i._ZN10__cxxabiv119__pointer_type_infoD1Ev
    lib_rtti_impl.o(.ARM.exidx) refers to lib_rtti_impl.o(i._ZN10__cxxabiv119__pointer_type_infoD0Ev) for i._ZN10__cxxabiv119__pointer_type_infoD0Ev
    lib_rtti_impl.o(.ARM.exidx) refers to lib_rtti_impl.o(i._ZN10__cxxabiv129__pointer_to_member_type_infoD1Ev) for i._ZN10__cxxabiv129__pointer_to_member_type_infoD1Ev
    lib_rtti_impl.o(.ARM.exidx) refers to lib_rtti_impl.o(i._ZN10__cxxabiv129__pointer_to_member_type_infoD0Ev) for i._ZN10__cxxabiv129__pointer_to_member_type_infoD0Ev
    arm_exceptions_terminate.o(.text) refers to arm_exceptions_globs.o(.text) for __cxa_get_globals
    arm_exceptions_terminate.o(.text) refers to abort.o(.text) for abort
    arm_exceptions_terminate.o(.ARM.exidx) refers to arm_exceptions_terminate.o(.text) for .text
    unwind_prcommon.o(.text) refers to unwinder.o(.text) for _Unwind_VRS_Get
    unwind_prcommon.o(.text) refers to unwind_activity.o(.emb_text) for _Unwind_Activity
    unwind_prcommon.o(.text) refers (Weak) to arm_callunex_noexceptions.o(.text) for __cxa_call_unexpected
    unwind_prcommon.o(.ARM.exidx) refers to unwind_prcommon.o(.text) for .text
    cmpret.o(.text) refers (Special) to usenofp.o(x$fpl$usenofp) for __I$use$fp
    dnan2.o(.text) refers (Special) to usenofp.o(x$fpl$usenofp) for __I$use$fp
    dnan2.o(.text) refers to retnan.o(.text) for __fpl_return_NaN
    fnan2.o(.text) refers (Special) to usenofp.o(x$fpl$usenofp) for __I$use$fp
    fnan2.o(.text) refers to retnan.o(.text) for __fpl_return_NaN
    sys_command.o(.text) refers (Special) to use_no_semi.o(.text) for __I$use$semihosting
    sys_command.o(.text) refers (Special) to indicate_semi.o(.text) for __semihosting_library_function
    sys_stackheap_outer.o(.text) refers to libspace.o(.text) for __user_perproc_libspace
    sys_stackheap_outer.o(.text) refers to startup_mdr1986ve1t.o(.text) for __user_initial_stackheap
    sys_stackheap_outer.o(__vectab_stack_and_reset_area) refers to tempstk.o(.text) for __temporary_stack_top
    sys_stackheap_outer.o(__vectab_stack_and_reset_area) refers to __main.o(!!!main) for __main
    maybetermalloc2.o(.emb_text) refers (Special) to term_alloc.o(.text) for _terminate_alloc
    h1_extend.o(.text) refers to h1_free.o(.text) for free
    h1_extend_mt.o(.text) refers to h1_free_mt.o(.text) for _free_internal
    exit.o(.text) refers to rtexit.o(.ARM.Collect$$rtexit$$00000000) for __rt_exit
    abort.o(.text) refers to defsig_abrt_outer.o(.text) for __rt_SIGABRT
    abort.o(.text) refers (Weak) to libshutdown.o(.ARM.Collect$$libshutdown$$00000000) for __rt_lib_shutdown
    abort.o(.text) refers to sys_exit.o(.text) for _sys_exit
    defsig_fpe_outer.o(.text) refers to defsig_fpe_inner.o(.text) for __rt_SIGFPE_inner
    defsig_fpe_outer.o(.text) refers to defsig_exit.o(.text) for __sig_exit
    defsig_fpe_formal.o(.text) refers to rt_raise.o(.text) for __rt_raise
    defsig_rtmem_outer.o(.text) refers to defsig_rtmem_inner.o(.text) for __rt_SIGRTMEM_inner
    defsig_rtmem_outer.o(.text) refers to defsig_exit.o(.text) for __sig_exit
    defsig_rtmem_formal.o(.text) refers to rt_raise.o(.text) for __rt_raise
    heapauxa.o(.text) refers to heapauxa.o(.data) for .data
    libinit.o(.ARM.Collect$$libinit$$00000000) refers (Special) to libinit2.o(.ARM.Collect$$libinit$$0000002E) for __rt_lib_init_alloca_1
    libinit.o(.ARM.Collect$$libinit$$00000000) refers (Special) to libinit2.o(.ARM.Collect$$libinit$$0000002C) for __rt_lib_init_argv_1
    libinit.o(.ARM.Collect$$libinit$$00000000) refers (Special) to libinit2.o(.ARM.Collect$$libinit$$0000001B) for __rt_lib_init_atexit_1
    libinit.o(.ARM.Collect$$libinit$$00000000) refers (Special) to libinit2.o(.ARM.Collect$$libinit$$00000021) for __rt_lib_init_clock_1
    libinit.o(.ARM.Collect$$libinit$$00000000) refers (Special) to libinit2.o(.ARM.Collect$$libinit$$00000032) for __rt_lib_init_cpp_1
    libinit.o(.ARM.Collect$$libinit$$00000000) refers (Special) to libinit2.o(.ARM.Collect$$libinit$$00000030) for __rt_lib_init_exceptions_1
    libinit.o(.ARM.Collect$$libinit$$00000000) refers (Special) to libinit2.o(.ARM.Collect$$libinit$$00000002) for __rt_lib_init_fp_1
    libinit.o(.ARM.Collect$$libinit$$00000000) refers (Special) to libinit2.o(.ARM.Collect$$libinit$$0000001F) for __rt_lib_init_fp_trap_1
    libinit.o(.ARM.Collect$$libinit$$00000000) refers (Special) to libinit2.o(.ARM.Collect$$libinit$$00000023) for __rt_lib_init_getenv_1
    libinit.o(.ARM.Collect$$libinit$$00000000) refers (Special) to libinit2.o(.ARM.Collect$$libinit$$0000000A) for __rt_lib_init_heap_1
    libinit.o(.ARM.Collect$$libinit$$00000000) refers (Special) to libinit2.o(.ARM.Collect$$libinit$$00000011) for __rt_lib_init_lc_collate_1
    libinit.o(.ARM.Collect$$libinit$$00000000) refers (Special) to libinit2.o(.ARM.Collect$$libinit$$00000013) for __rt_lib_init_lc_ctype_1
    libinit.o(.ARM.Collect$$libinit$$00000000) refers (Special) to libinit2.o(.ARM.Collect$$libinit$$00000015) for __rt_lib_init_lc_monetary_1
    libinit.o(.ARM.Collect$$libinit$$00000000) refers (Special) to libinit2.o(.ARM.Collect$$libinit$$00000017) for __rt_lib_init_lc_numeric_1
    libinit.o(.ARM.Collect$$libinit$$00000000) refers (Special) to libinit2.o(.ARM.Collect$$libinit$$00000019) for __rt_lib_init_lc_time_1
    libinit.o(.ARM.Collect$$libinit$$00000000) refers (Special) to libinit2.o(.ARM.Collect$$libinit$$00000004) for __rt_lib_init_preinit_1
    libinit.o(.ARM.Collect$$libinit$$00000000) refers (Special) to libinit2.o(.ARM.Collect$$libinit$$0000000E) for __rt_lib_init_rand_1
    libinit.o(.ARM.Collect$$libinit$$00000000) refers (Special) to libinit2.o(.ARM.Collect$$libinit$$00000033) for __rt_lib_init_return
    libinit.o(.ARM.Collect$$libinit$$00000000) refers (Special) to libinit2.o(.ARM.Collect$$libinit$$0000001D) for __rt_lib_init_signal_1
    libinit.o(.ARM.Collect$$libinit$$00000000) refers (Special) to libinit2.o(.ARM.Collect$$libinit$$00000025) for __rt_lib_init_stdio_1
    libinit.o(.ARM.Collect$$libinit$$00000000) refers (Special) to libinit2.o(.ARM.Collect$$libinit$$0000000C) for __rt_lib_init_user_alloc_1
    exception_what.o(.ARM.exidx) refers to exception_what.o(i._ZNKSt9exception4whatEv) for i._ZNKSt9exception4whatEv
    type_info_dtor.o(.ARM.exidx) refers to type_info_dtor.o(i._ZNSt9type_infoD1Ev) for i._ZNSt9type_infoD1Ev
    type_info_dtor.o(.ARM.exidx) refers to type_info_dtor.o(i._ZNSt9type_infoD0Ev) for i._ZNSt9type_infoD0Ev
    arm_exceptions_callterm.o(.text) refers to arm_exceptions_globs.o(.text) for __cxa_get_globals
    arm_exceptions_callterm.o(.text) refers to arm_exceptions_support.o(.text) for __ARM::is_foreign_exception(_Unwind_Control_Block*)
    arm_exceptions_callterm.o(.text) refers to arm_exceptions_terminate.o(.text) for std::terminate()
    arm_exceptions_callterm.o(.ARM.exidx) refers to arm_exceptions_callterm.o(.text) for .text
    arm_exceptions_globs.o(.text) refers to abort.o(.text) for abort
    arm_exceptions_globs.o(.text) refers to rt_eh_globals_addr_intlibspace.o(.text) for __rt_eh_globals_addr
    arm_exceptions_globs.o(.text) refers to h1_alloc.o(.text) for malloc
    arm_exceptions_globs.o(.text) refers to arm_exceptions_mem.o(.text) for __ARM_exceptions_buffer_init
    arm_exceptions_globs.o(.ARM.exidx) refers to arm_exceptions_globs.o(.text) for .text
    unwinder.o(.emb_text) refers to unwinder.o(.text) for __ARM_Unwind_RaiseException
    unwinder.o(.text) refers to bsearchnoex.o(.text) for bsearch
    unwinder.o(.text) refers to unwind_activity.o(.emb_text) for _Unwind_Activity
    unwinder.o(.text) refers to abort.o(.text) for abort
    unwinder.o(.text) refers to unwinder.o(.emb_text) for __ARM_Unwind_VRS_corerestore
    unwinder.o(.text) refers to h1_alloc.o(.text) for malloc
    unwinder.o(.text) refers to rt_memcpy.o(.emb_text) for __aeabi_memcpy4
    unwinder.o(.text) refers to h1_free.o(.text) for free
    unwinder.o(.text) refers (Weak) to unwind_pr0.o(.text) for __aeabi_unwind_cpp_pr0
    unwinder.o(.ARM.exidx) refers to unwinder.o(.text) for .text
    retnan.o(.text) refers (Special) to usenofp.o(x$fpl$usenofp) for __I$use$fp
    retnan.o(.text) refers to cmpret.o(.text) for __fpl_cmpreturn
    sys_exit.o(.text) refers (Special) to use_no_semi.o(.text) for __I$use$semihosting
    sys_exit.o(.text) refers (Special) to indicate_semi.o(.text) for __semihosting_library_function
    rtexit.o(.ARM.Collect$$rtexit$$00000000) refers (Special) to rtexit2.o(.ARM.Collect$$rtexit$$00000004) for __rt_exit_exit
    rtexit.o(.ARM.Collect$$rtexit$$00000000) refers (Special) to rtexit2.o(.ARM.Collect$$rtexit$$00000003) for __rt_exit_ls
    rtexit.o(.ARM.Collect$$rtexit$$00000000) refers (Special) to rtexit2.o(.ARM.Collect$$rtexit$$00000002) for __rt_exit_prels_1
    rtexit.o(.ARM.exidx) refers (Special) to rtexit2.o(.ARM.Collect$$rtexit$$00000004) for __rt_exit_exit
    rtexit.o(.ARM.exidx) refers (Special) to rtexit2.o(.ARM.Collect$$rtexit$$00000003) for __rt_exit_ls
    rtexit.o(.ARM.exidx) refers (Special) to rtexit2.o(.ARM.Collect$$rtexit$$00000002) for __rt_exit_prels_1
    rtexit.o(.ARM.exidx) refers to rtexit.o(.ARM.Collect$$rtexit$$00000000) for .ARM.Collect$$rtexit$$00000000
    rt_raise.o(.text) refers to __raise.o(.text) for __raise
    rt_raise.o(.text) refers to sys_exit.o(.text) for _sys_exit
    rt_eh_globals_addr.o(.text) refers to rt_eh_globals_addr.o(.bss) for __rt_eh_globals_addr_data
    rt_eh_globals_addr_intlibspace.o(.text) refers to libspace.o(.bss) for __libspace_start
    term_alloc.o(.text) refers (Special) to libshutdown2.o(.ARM.Collect$$libshutdown$$0000000E) for __rt_lib_shutdown_heap_2
    term_alloc.o(.text) refers to rt_heap_descriptor_intlibspace.o(.text) for __rt_heap_descriptor
    defsig_exit.o(.text) refers to sys_exit.o(.text) for _sys_exit
    defsig_abrt_outer.o(.text) refers to defsig_abrt_inner.o(.text) for __rt_SIGABRT_inner
    defsig_abrt_outer.o(.text) refers to defsig_exit.o(.text) for __sig_exit
    defsig_abrt_formal.o(.text) refers to rt_raise.o(.text) for __rt_raise
    defsig_fpe_inner.o(.text) refers to defsig_general.o(.text) for __default_signal_display
    defsig_rtmem_inner.o(.text) refers to defsig_general.o(.text) for __default_signal_display
    _get_argv_nomalloc.o(.text) refers (Special) to hrguard.o(.text) for __heap_region$guard
    _get_argv_nomalloc.o(.text) refers to defsig_rtmem_outer.o(.text) for __rt_SIGRTMEM
    _get_argv_nomalloc.o(.text) refers to sys_command.o(.text) for _sys_command_string
    arm_begincatch_noexceptions.o(.ARM.exidx) refers to arm_begincatch_noexceptions.o(.text) for .text
    arm_exceptions_mem.o(.text) refers to h1_alloc.o(.text) for malloc
    arm_exceptions_mem.o(.ARM.exidx) refers to arm_exceptions_mem.o(.text) for .text
    arm_exceptions_support.o(.text) refers to arm_exceptions_support.o(.constdata) for .constdata
    arm_exceptions_support.o(.ARM.exidx) refers to arm_exceptions_support.o(.text) for .text
    rtexit2.o(.ARM.Collect$$rtexit$$00000003) refers to libshutdown.o(.ARM.Collect$$libshutdown$$00000000) for __rt_lib_shutdown
    rtexit2.o(.ARM.Collect$$rtexit$$00000004) refers to sys_exit.o(.text) for _sys_exit
    rtexit2.o(.ARM.exidx) refers to rtexit2.o(.ARM.Collect$$rtexit$$00000001) for .ARM.Collect$$rtexit$$00000001
    rtexit2.o(.ARM.exidx) refers to rtexit2.o(.ARM.Collect$$rtexit$$00000003) for .ARM.Collect$$rtexit$$00000003
    rtexit2.o(.ARM.exidx) refers to rtexit2.o(.ARM.Collect$$rtexit$$00000004) for .ARM.Collect$$rtexit$$00000004
    __raise.o(.text) refers to defsig.o(CL$$defsig) for __default_signal_handler
    defsig_general.o(.text) refers to sys_wrch.o(.text) for _ttywrch
    defsig_abrt_inner.o(.text) refers to defsig_general.o(.text) for __default_signal_display
    libshutdown2.o(.ARM.Collect$$libshutdown$$0000000D) refers (Weak) to term_alloc.o(.text) for _terminate_alloc
    sys_wrch.o(.text) refers (Special) to use_no_semi.o(.text) for __I$use$semihosting
    sys_wrch.o(.text) refers (Special) to indicate_semi.o(.text) for __semihosting_library_function
    defsig.o(CL$$defsig) refers to defsig_abrt_inner.o(.text) for __rt_SIGABRT_inner
    defsig.o(CL$$defsig) refers to defsig_fpe_inner.o(.text) for __rt_SIGFPE_inner
    defsig.o(CL$$defsig) refers to defsig_rtmem_inner.o(.text) for __rt_SIGRTMEM_inner
    libshutdown.o(.ARM.Collect$$libshutdown$$00000000) refers (Special) to libshutdown2.o(.ARM.Collect$$libshutdown$$00000002) for __rt_lib_shutdown_cpp_1
    libshutdown.o(.ARM.Collect$$libshutdown$$00000000) refers (Special) to libshutdown2.o(.ARM.Collect$$libshutdown$$00000007) for __rt_lib_shutdown_fp_trap_1
    libshutdown.o(.ARM.Collect$$libshutdown$$00000000) refers (Special) to libshutdown2.o(.ARM.Collect$$libshutdown$$0000000F) for __rt_lib_shutdown_heap_1
    libshutdown.o(.ARM.Collect$$libshutdown$$00000000) refers (Special) to libshutdown2.o(.ARM.Collect$$libshutdown$$00000010) for __rt_lib_shutdown_return
    libshutdown.o(.ARM.Collect$$libshutdown$$00000000) refers (Special) to libshutdown2.o(.ARM.Collect$$libshutdown$$0000000A) for __rt_lib_shutdown_signal_1
    libshutdown.o(.ARM.Collect$$libshutdown$$00000000) refers (Special) to libshutdown2.o(.ARM.Collect$$libshutdown$$00000004) for __rt_lib_shutdown_stdio_1
    libshutdown.o(.ARM.Collect$$libshutdown$$00000000) refers (Special) to libshutdown2.o(.ARM.Collect$$libshutdown$$0000000C) for __rt_lib_shutdown_user_alloc_1
    defsig_rtred_inner.o(.text) refers to defsig_general.o(.text) for __default_signal_display
    defsig_stak_inner.o(.text) refers to defsig_general.o(.text) for __default_signal_display
    defsig_pvfn_inner.o(.text) refers to defsig_general.o(.text) for __default_signal_display
    defsig_cppl_inner.o(.text) refers to defsig_general.o(.text) for __default_signal_display
    defsig_segv_inner.o(.text) refers to defsig_general.o(.text) for __default_signal_display
    defsig_other.o(.text) refers to defsig_general.o(.text) for __default_signal_display
    ledind.o(.ARM.exidx) refers to ledind.o(i.__ARM_common_switch8) for i.__ARM_common_switch8
    ili9488.o(.ARM.exidx) refers to ili9488.o(t._Z4swapItEvRT_S1_) for t._Z4swapItEvRT_S1_
    bad_alloc_dtor.o(.constdata__ZTVSt9bad_alloc) refers to bad_alloc_dtor.o(.constdata__ZTISt9bad_alloc) for typeinfo for std::bad_alloc
    bad_alloc_dtor.o(.constdata__ZTVSt9bad_alloc) refers to bad_alloc_dtor.o(i._ZNSt9bad_allocD1Ev) for std::bad_alloc::~bad_alloc()
    bad_alloc_dtor.o(.constdata__ZTVSt9bad_alloc) refers to bad_alloc_dtor.o(i._ZNSt9bad_allocD0Ev) for std::bad_alloc::~bad_alloc__deallocating()
    bad_alloc_dtor.o(.constdata__ZTVSt9bad_alloc) refers to bad_alloc_what.o(i._ZNKSt9bad_alloc4whatEv) for std::bad_alloc::what() const
    bad_alloc_dtor.o(.constdata__ZTISt9bad_alloc) refers to lib_rtti_impl.o(.constdata__ZTVN10__cxxabiv120__si_class_type_infoE) for vtable for __cxxabiv1::__si_class_type_info
    bad_alloc_dtor.o(.constdata__ZTISt9bad_alloc) refers to bad_alloc_dtor.o(.constdata__ZTSSt9bad_alloc) for typeinfo name for std::bad_alloc
    bad_alloc_dtor.o(.constdata__ZTISt9bad_alloc) refers to exception_dtor.o(.constdata__ZTISt9exception) for typeinfo for std::exception
    exception_dtor.o(.constdata__ZTVSt9exception) refers to exception_dtor.o(.constdata__ZTISt9exception) for typeinfo for std::exception
    exception_dtor.o(.constdata__ZTVSt9exception) refers to exception_dtor.o(i._ZNSt9exceptionD1Ev) for std::exception::~exception()
    exception_dtor.o(.constdata__ZTVSt9exception) refers to exception_dtor.o(i._ZNSt9exceptionD0Ev) for std::exception::~exception__deallocating()
    exception_dtor.o(.constdata__ZTVSt9exception) refers to exception_what.o(i._ZNKSt9exception4whatEv) for std::exception::what() const
    exception_dtor.o(.constdata__ZTISt9exception) refers to lib_rtti_impl.o(.constdata__ZTVN10__cxxabiv117__class_type_infoE) for vtable for __cxxabiv1::__class_type_info
    exception_dtor.o(.constdata__ZTISt9exception) refers to exception_dtor.o(.constdata__ZTSSt9exception) for typeinfo name for std::exception
    lib_rtti_impl.o(.constdata__ZTVN10__cxxabiv123__fundamental_type_infoE) refers to lib_rtti_impl.o(.constdata__ZTIN10__cxxabiv123__fundamental_type_infoE) for typeinfo for __cxxabiv1::__fundamental_type_info
    lib_rtti_impl.o(.constdata__ZTVN10__cxxabiv123__fundamental_type_infoE) refers to lib_rtti_impl.o(i._ZN10__cxxabiv123__fundamental_type_infoD1Ev) for __cxxabiv1::__fundamental_type_info::~__fundamental_type_info()
    lib_rtti_impl.o(.constdata__ZTVN10__cxxabiv123__fundamental_type_infoE) refers to lib_rtti_impl.o(i._ZN10__cxxabiv123__fundamental_type_infoD0Ev) for __cxxabiv1::__fundamental_type_info::~__fundamental_type_info__deallocating()
    lib_rtti_impl.o(.constdata__ZTVN10__cxxabiv117__array_type_infoE) refers to lib_rtti_impl.o(.constdata__ZTIN10__cxxabiv117__array_type_infoE) for typeinfo for __cxxabiv1::__array_type_info
    lib_rtti_impl.o(.constdata__ZTVN10__cxxabiv117__array_type_infoE) refers to lib_rtti_impl.o(i._ZN10__cxxabiv117__array_type_infoD1Ev) for __cxxabiv1::__array_type_info::~__array_type_info()
    lib_rtti_impl.o(.constdata__ZTVN10__cxxabiv117__array_type_infoE) refers to lib_rtti_impl.o(i._ZN10__cxxabiv117__array_type_infoD0Ev) for __cxxabiv1::__array_type_info::~__array_type_info__deallocating()
    lib_rtti_impl.o(.constdata__ZTVN10__cxxabiv120__function_type_infoE) refers to lib_rtti_impl.o(.constdata__ZTIN10__cxxabiv120__function_type_infoE) for typeinfo for __cxxabiv1::__function_type_info
    lib_rtti_impl.o(.constdata__ZTVN10__cxxabiv120__function_type_infoE) refers to lib_rtti_impl.o(i._ZN10__cxxabiv120__function_type_infoD1Ev) for __cxxabiv1::__function_type_info::~__function_type_info()
    lib_rtti_impl.o(.constdata__ZTVN10__cxxabiv120__function_type_infoE) refers to lib_rtti_impl.o(i._ZN10__cxxabiv120__function_type_infoD0Ev) for __cxxabiv1::__function_type_info::~__function_type_info__deallocating()
    lib_rtti_impl.o(.constdata__ZTVN10__cxxabiv116__enum_type_infoE) refers to lib_rtti_impl.o(.constdata__ZTIN10__cxxabiv116__enum_type_infoE) for typeinfo for __cxxabiv1::__enum_type_info
    lib_rtti_impl.o(.constdata__ZTVN10__cxxabiv116__enum_type_infoE) refers to lib_rtti_impl.o(i._ZN10__cxxabiv116__enum_type_infoD1Ev) for __cxxabiv1::__enum_type_info::~__enum_type_info()
    lib_rtti_impl.o(.constdata__ZTVN10__cxxabiv116__enum_type_infoE) refers to lib_rtti_impl.o(i._ZN10__cxxabiv116__enum_type_infoD0Ev) for __cxxabiv1::__enum_type_info::~__enum_type_info__deallocating()
    lib_rtti_impl.o(.constdata__ZTVN10__cxxabiv117__class_type_infoE) refers to lib_rtti_impl.o(.constdata__ZTIN10__cxxabiv117__class_type_infoE) for typeinfo for __cxxabiv1::__class_type_info
    lib_rtti_impl.o(.constdata__ZTVN10__cxxabiv117__class_type_infoE) refers to lib_rtti_impl.o(i._ZN10__cxxabiv117__class_type_infoD1Ev) for __cxxabiv1::__class_type_info::~__class_type_info()
    lib_rtti_impl.o(.constdata__ZTVN10__cxxabiv117__class_type_infoE) refers to lib_rtti_impl.o(i._ZN10__cxxabiv117__class_type_infoD0Ev) for __cxxabiv1::__class_type_info::~__class_type_info__deallocating()
    lib_rtti_impl.o(.constdata__ZTVN10__cxxabiv120__si_class_type_infoE) refers to lib_rtti_impl.o(.constdata__ZTIN10__cxxabiv120__si_class_type_infoE) for typeinfo for __cxxabiv1::__si_class_type_info
    lib_rtti_impl.o(.constdata__ZTVN10__cxxabiv120__si_class_type_infoE) refers to lib_rtti_impl.o(i._ZN10__cxxabiv120__si_class_type_infoD1Ev) for __cxxabiv1::__si_class_type_info::~__si_class_type_info()
    lib_rtti_impl.o(.constdata__ZTVN10__cxxabiv120__si_class_type_infoE) refers to lib_rtti_impl.o(i._ZN10__cxxabiv120__si_class_type_infoD0Ev) for __cxxabiv1::__si_class_type_info::~__si_class_type_info__deallocating()
    lib_rtti_impl.o(.constdata__ZTVN10__cxxabiv121__vmi_class_type_infoE) refers to lib_rtti_impl.o(.constdata__ZTIN10__cxxabiv121__vmi_class_type_infoE) for typeinfo for __cxxabiv1::__vmi_class_type_info
    lib_rtti_impl.o(.constdata__ZTVN10__cxxabiv121__vmi_class_type_infoE) refers to lib_rtti_impl.o(i._ZN10__cxxabiv121__vmi_class_type_infoD1Ev) for __cxxabiv1::__vmi_class_type_info::~__vmi_class_type_info()
    lib_rtti_impl.o(.constdata__ZTVN10__cxxabiv121__vmi_class_type_infoE) refers to lib_rtti_impl.o(i._ZN10__cxxabiv121__vmi_class_type_infoD0Ev) for __cxxabiv1::__vmi_class_type_info::~__vmi_class_type_info__deallocating()
    lib_rtti_impl.o(.constdata__ZTVN10__cxxabiv117__pbase_type_infoE) refers to lib_rtti_impl.o(.constdata__ZTIN10__cxxabiv117__pbase_type_infoE) for typeinfo for __cxxabiv1::__pbase_type_info
    lib_rtti_impl.o(.constdata__ZTVN10__cxxabiv117__pbase_type_infoE) refers to lib_rtti_impl.o(i._ZN10__cxxabiv117__pbase_type_infoD1Ev) for __cxxabiv1::__pbase_type_info::~__pbase_type_info()
    lib_rtti_impl.o(.constdata__ZTVN10__cxxabiv117__pbase_type_infoE) refers to lib_rtti_impl.o(i._ZN10__cxxabiv117__pbase_type_infoD0Ev) for __cxxabiv1::__pbase_type_info::~__pbase_type_info__deallocating()
    lib_rtti_impl.o(.constdata__ZTVN10__cxxabiv119__pointer_type_infoE) refers to lib_rtti_impl.o(.constdata__ZTIN10__cxxabiv119__pointer_type_infoE) for typeinfo for __cxxabiv1::__pointer_type_info
    lib_rtti_impl.o(.constdata__ZTVN10__cxxabiv119__pointer_type_infoE) refers to lib_rtti_impl.o(i._ZN10__cxxabiv119__pointer_type_infoD1Ev) for __cxxabiv1::__pointer_type_info::~__pointer_type_info()
    lib_rtti_impl.o(.constdata__ZTVN10__cxxabiv119__pointer_type_infoE) refers to lib_rtti_impl.o(i._ZN10__cxxabiv119__pointer_type_infoD0Ev) for __cxxabiv1::__pointer_type_info::~__pointer_type_info__deallocating()
    lib_rtti_impl.o(.constdata__ZTVN10__cxxabiv129__pointer_to_member_type_infoE) refers to lib_rtti_impl.o(.constdata__ZTIN10__cxxabiv129__pointer_to_member_type_infoE) for typeinfo for __cxxabiv1::__pointer_to_member_type_info
    lib_rtti_impl.o(.constdata__ZTVN10__cxxabiv129__pointer_to_member_type_infoE) refers to lib_rtti_impl.o(i._ZN10__cxxabiv129__pointer_to_member_type_infoD1Ev) for __cxxabiv1::__pointer_to_member_type_info::~__pointer_to_member_type_info()
    lib_rtti_impl.o(.constdata__ZTVN10__cxxabiv129__pointer_to_member_type_infoE) refers to lib_rtti_impl.o(i._ZN10__cxxabiv129__pointer_to_member_type_infoD0Ev) for __cxxabiv1::__pointer_to_member_type_info::~__pointer_to_member_type_info__deallocating()
    lib_rtti_impl.o(.ARM.exidx) refers to lib_rtti_impl.o(i._ZNSt9type_infodlEPv) for i._ZNSt9type_infodlEPv
    lib_rtti_impl.o(.constdata__ZTIN10__cxxabiv123__fundamental_type_infoE) refers to lib_rtti_impl.o(.constdata__ZTVN10__cxxabiv120__si_class_type_infoE) for vtable for __cxxabiv1::__si_class_type_info
    lib_rtti_impl.o(.constdata__ZTIN10__cxxabiv123__fundamental_type_infoE) refers to lib_rtti_impl.o(.constdata__ZTSN10__cxxabiv123__fundamental_type_infoE) for typeinfo name for __cxxabiv1::__fundamental_type_info
    lib_rtti_impl.o(.constdata__ZTIN10__cxxabiv123__fundamental_type_infoE) refers to type_info_dtor.o(.constdata__ZTISt9type_info) for typeinfo for std::type_info
    lib_rtti_impl.o(.constdata__ZTIN10__cxxabiv117__array_type_infoE) refers to lib_rtti_impl.o(.constdata__ZTVN10__cxxabiv120__si_class_type_infoE) for vtable for __cxxabiv1::__si_class_type_info
    lib_rtti_impl.o(.constdata__ZTIN10__cxxabiv117__array_type_infoE) refers to lib_rtti_impl.o(.constdata__ZTSN10__cxxabiv117__array_type_infoE) for typeinfo name for __cxxabiv1::__array_type_info
    lib_rtti_impl.o(.constdata__ZTIN10__cxxabiv117__array_type_infoE) refers to type_info_dtor.o(.constdata__ZTISt9type_info) for typeinfo for std::type_info
    lib_rtti_impl.o(.constdata__ZTIN10__cxxabiv120__function_type_infoE) refers to lib_rtti_impl.o(.constdata__ZTVN10__cxxabiv120__si_class_type_infoE) for vtable for __cxxabiv1::__si_class_type_info
    lib_rtti_impl.o(.constdata__ZTIN10__cxxabiv120__function_type_infoE) refers to lib_rtti_impl.o(.constdata__ZTSN10__cxxabiv120__function_type_infoE) for typeinfo name for __cxxabiv1::__function_type_info
    lib_rtti_impl.o(.constdata__ZTIN10__cxxabiv120__function_type_infoE) refers to type_info_dtor.o(.constdata__ZTISt9type_info) for typeinfo for std::type_info
    lib_rtti_impl.o(.constdata__ZTIN10__cxxabiv116__enum_type_infoE) refers to lib_rtti_impl.o(.constdata__ZTVN10__cxxabiv120__si_class_type_infoE) for vtable for __cxxabiv1::__si_class_type_info
    lib_rtti_impl.o(.constdata__ZTIN10__cxxabiv116__enum_type_infoE) refers to lib_rtti_impl.o(.constdata__ZTSN10__cxxabiv116__enum_type_infoE) for typeinfo name for __cxxabiv1::__enum_type_info
    lib_rtti_impl.o(.constdata__ZTIN10__cxxabiv116__enum_type_infoE) refers to type_info_dtor.o(.constdata__ZTISt9type_info) for typeinfo for std::type_info
    lib_rtti_impl.o(.constdata__ZTIN10__cxxabiv117__class_type_infoE) refers to lib_rtti_impl.o(.constdata__ZTVN10__cxxabiv120__si_class_type_infoE) for vtable for __cxxabiv1::__si_class_type_info
    lib_rtti_impl.o(.constdata__ZTIN10__cxxabiv117__class_type_infoE) refers to lib_rtti_impl.o(.constdata__ZTSN10__cxxabiv117__class_type_infoE) for typeinfo name for __cxxabiv1::__class_type_info
    lib_rtti_impl.o(.constdata__ZTIN10__cxxabiv117__class_type_infoE) refers to type_info_dtor.o(.constdata__ZTISt9type_info) for typeinfo for std::type_info
    lib_rtti_impl.o(.constdata__ZTIN10__cxxabiv120__si_class_type_infoE) refers to lib_rtti_impl.o(.constdata__ZTVN10__cxxabiv120__si_class_type_infoE) for vtable for __cxxabiv1::__si_class_type_info
    lib_rtti_impl.o(.constdata__ZTIN10__cxxabiv120__si_class_type_infoE) refers to lib_rtti_impl.o(.constdata__ZTSN10__cxxabiv120__si_class_type_infoE) for typeinfo name for __cxxabiv1::__si_class_type_info
    lib_rtti_impl.o(.constdata__ZTIN10__cxxabiv120__si_class_type_infoE) refers to lib_rtti_impl.o(.constdata__ZTIN10__cxxabiv117__class_type_infoE) for typeinfo for __cxxabiv1::__class_type_info
    lib_rtti_impl.o(.constdata__ZTIN10__cxxabiv121__vmi_class_type_infoE) refers to lib_rtti_impl.o(.constdata__ZTVN10__cxxabiv120__si_class_type_infoE) for vtable for __cxxabiv1::__si_class_type_info
    lib_rtti_impl.o(.constdata__ZTIN10__cxxabiv121__vmi_class_type_infoE) refers to lib_rtti_impl.o(.constdata__ZTSN10__cxxabiv121__vmi_class_type_infoE) for typeinfo name for __cxxabiv1::__vmi_class_type_info
    lib_rtti_impl.o(.constdata__ZTIN10__cxxabiv121__vmi_class_type_infoE) refers to lib_rtti_impl.o(.constdata__ZTIN10__cxxabiv117__class_type_infoE) for typeinfo for __cxxabiv1::__class_type_info
    lib_rtti_impl.o(.constdata__ZTIN10__cxxabiv117__pbase_type_infoE) refers to lib_rtti_impl.o(.constdata__ZTVN10__cxxabiv120__si_class_type_infoE) for vtable for __cxxabiv1::__si_class_type_info
    lib_rtti_impl.o(.constdata__ZTIN10__cxxabiv117__pbase_type_infoE) refers to lib_rtti_impl.o(.constdata__ZTSN10__cxxabiv117__pbase_type_infoE) for typeinfo name for __cxxabiv1::__pbase_type_info
    lib_rtti_impl.o(.constdata__ZTIN10__cxxabiv117__pbase_type_infoE) refers to type_info_dtor.o(.constdata__ZTISt9type_info) for typeinfo for std::type_info
    lib_rtti_impl.o(.constdata__ZTIN10__cxxabiv119__pointer_type_infoE) refers to lib_rtti_impl.o(.constdata__ZTVN10__cxxabiv120__si_class_type_infoE) for vtable for __cxxabiv1::__si_class_type_info
    lib_rtti_impl.o(.constdata__ZTIN10__cxxabiv119__pointer_type_infoE) refers to lib_rtti_impl.o(.constdata__ZTSN10__cxxabiv119__pointer_type_infoE) for typeinfo name for __cxxabiv1::__pointer_type_info
    lib_rtti_impl.o(.constdata__ZTIN10__cxxabiv119__pointer_type_infoE) refers to lib_rtti_impl.o(.constdata__ZTIN10__cxxabiv117__pbase_type_infoE) for typeinfo for __cxxabiv1::__pbase_type_info
    lib_rtti_impl.o(.constdata__ZTIN10__cxxabiv129__pointer_to_member_type_infoE) refers to lib_rtti_impl.o(.constdata__ZTVN10__cxxabiv120__si_class_type_infoE) for vtable for __cxxabiv1::__si_class_type_info
    lib_rtti_impl.o(.constdata__ZTIN10__cxxabiv129__pointer_to_member_type_infoE) refers to lib_rtti_impl.o(.constdata__ZTSN10__cxxabiv129__pointer_to_member_type_infoE) for typeinfo name for __cxxabiv1::__pointer_to_member_type_info
    lib_rtti_impl.o(.constdata__ZTIN10__cxxabiv129__pointer_to_member_type_infoE) refers to lib_rtti_impl.o(.constdata__ZTIN10__cxxabiv117__pbase_type_infoE) for typeinfo for __cxxabiv1::__pbase_type_info
    lib_rtti_impl.o(i.__ARM_common_noexcept_landing) refers to arm_exceptions_callterm.o(.text) for __cxa_call_terminate
    lib_rtti_impl.o(.ARM.exidx) refers to lib_rtti_impl.o(i.__ARM_common_noexcept_landing) for i.__ARM_common_noexcept_landing
    type_info_dtor.o(.constdata__ZTVSt9type_info) refers to type_info_dtor.o(.constdata__ZTISt9type_info) for typeinfo for std::type_info
    type_info_dtor.o(.constdata__ZTVSt9type_info) refers to type_info_dtor.o(i._ZNSt9type_infoD1Ev) for std::type_info::~type_info()
    type_info_dtor.o(.constdata__ZTVSt9type_info) refers to type_info_dtor.o(i._ZNSt9type_infoD0Ev) for std::type_info::~type_info__deallocating()
    type_info_dtor.o(.constdata__ZTISt9type_info) refers to lib_rtti_impl.o(.constdata__ZTVN10__cxxabiv117__class_type_infoE) for vtable for __cxxabiv1::__class_type_info
    type_info_dtor.o(.constdata__ZTISt9type_info) refers to type_info_dtor.o(.constdata__ZTSSt9type_info) for typeinfo name for std::type_info


==============================================================================

Removing Unused input sections from the image.

    Removing main.o(.rev16_text), (4 bytes).
    Removing main.o(.revsh_text), (4 bytes).
    Removing main.o(.ARM.exidx), (8 bytes).
    Removing relay.o(.rev16_text), (4 bytes).
    Removing relay.o(.revsh_text), (4 bytes).
    Removing relay.o(i._ZN5RELAY2onEv), (12 bytes).
    Removing relay.o(i._ZN5RELAY3offEv), (12 bytes).
    Removing relay.o(i._ZN5RELAY9getStatusEv), (12 bytes).
    Removing relay.o(i._ZN5RELAYC1EP16MDR_PORT_TypeDeft), (24 bytes).
    Removing relay.o(.ARM.exidx), (8 bytes).
    Removing relay.o(.ARM.exidx), (8 bytes).
    Removing relay.o(.ARM.exidx), (8 bytes).
    Removing relay.o(.ARM.exidx), (8 bytes).
    Removing spi.o(.rev16_text), (4 bytes).
    Removing spi.o(.revsh_text), (4 bytes).
    Removing spi.o(i._ZN3SPI15write_then_readEPhjS0_jh), (60 bytes).
    Removing spi.o(i._ZN3SPI5writeEPhj), (32 bytes).
    Removing spi.o(i._ZN3SPI8transmitEPh), (38 bytes).
    Removing spi.o(i._ZN3SPIC1EP15MDR_SSP_TypeDef), (28 bytes).
    Removing spi.o(i._ZN3SPIC1EP15MDR_SSP_TypeDefP9PortMapIOS3_S3_), (38 bytes).
    Removing spi.o(i._ZN3SPIC1Ev), (16 bytes).
    Removing spi.o(.ARM.exidx), (8 bytes).
    Removing spi.o(.ARM.exidx), (8 bytes).
    Removing spi.o(.ARM.exidx), (8 bytes).
    Removing spi.o(.ARM.exidx), (8 bytes).
    Removing spi.o(.ARM.exidx), (8 bytes).
    Removing spi.o(.ARM.exidx), (8 bytes).
    Removing spi.o(.ARM.exidx), (8 bytes).
    Removing spi.o(.ARM.exidx), (8 bytes).
    Removing spi.o(.ARM.exidx), (8 bytes).
    Removing ledind.o(.rev16_text), (4 bytes).
    Removing ledind.o(.revsh_text), (4 bytes).
    Removing ledind.o(i._ZN10LED_CATODEC1EP9PortMapIO), (4 bytes).
    Removing ledind.o(i._ZN10LED_CATODEC1Ev), (2 bytes).
    Removing ledind.o(i._ZN8LED_CODE7setCodeEh), (1880 bytes).
    Removing ledind.o(i._ZN8LED_CODEC1EP9PortMapIOS1_S1_S1_S1_S1_S1_S1_S1_S1_), (36 bytes).
    Removing ledind.o(i._ZN8LED_CODEC1Ev), (2 bytes).
    Removing ledind.o(i._ZN9LED_DIGIT9showDigitEht), (76 bytes).
    Removing ledind.o(i._ZN9LED_DIGITC1EP8LED_CODEP10LED_CATODE), (6 bytes).
    Removing ledind.o(i._ZN9LED_DIGITC1EP8LED_CODEP10LED_CATODEh), (8 bytes).
    Removing ledind.o(.ARM.exidx), (8 bytes).
    Removing ledind.o(.ARM.exidx), (8 bytes).
    Removing ledind.o(.ARM.exidx), (8 bytes).
    Removing ledind.o(.ARM.exidx), (8 bytes).
    Removing ledind.o(.ARM.exidx), (8 bytes).
    Removing ledind.o(.ARM.exidx), (8 bytes).
    Removing ledind.o(.ARM.exidx), (8 bytes).
    Removing ledind.o(.ARM.exidx), (8 bytes).
    Removing sensorbutton.o(.rev16_text), (4 bytes).
    Removing sensorbutton.o(.revsh_text), (4 bytes).
    Removing sensorbutton.o(i._ZN6BUTTON11BTN_HandlerE11btn_alias_t), (6 bytes).
    Removing sensorbutton.o(.ARM.exidx), (8 bytes).
    Removing port.o(.rev16_text), (4 bytes).
    Removing port.o(.revsh_text), (4 bytes).
    Removing port.o(i._ZN9PortMapIO11setPinAsOffEv), (84 bytes).
    Removing port.o(i._ZN9PortMapIO13setPinAsInputEv), (84 bytes).
    Removing port.o(i._ZN9PortMapIO14setPinAsAnalogEv), (84 bytes).
    Removing port.o(i._ZN9PortMapIO14setPinAsOutputEv), (84 bytes).
    Removing port.o(i._ZN9PortMapIO18PortMapIoPORT_ReadEv), (14 bytes).
    Removing port.o(i._ZN9PortMapIO19PortMapIoPORT_WriteEPt), (16 bytes).
    Removing port.o(i._ZN9PortMapIO6setLowEv), (18 bytes).
    Removing port.o(i._ZN9PortMapIO7setHighEv), (18 bytes).
    Removing port.o(i._ZN9PortMapIO9getStatusEv), (14 bytes).
    Removing port.o(i._ZN9PortMapIO9togglePinEv), (2 bytes).
    Removing port.o(.ARM.exidx), (8 bytes).
    Removing port.o(.ARM.exidx), (8 bytes).
    Removing port.o(.ARM.exidx), (8 bytes).
    Removing port.o(.ARM.exidx), (8 bytes).
    Removing port.o(.ARM.exidx), (8 bytes).
    Removing port.o(.ARM.exidx), (8 bytes).
    Removing port.o(.ARM.exidx), (8 bytes).
    Removing port.o(.ARM.exidx), (8 bytes).
    Removing port.o(.ARM.exidx), (8 bytes).
    Removing port.o(.ARM.exidx), (8 bytes).
    Removing port.o(.ARM.exidx), (8 bytes).
    Removing port.o(.ARM.exidx), (8 bytes).
    Removing port.o(.ARM.exidx), (8 bytes).
    Removing port.o(.ARM.exidx), (8 bytes).
    Removing port.o(.ARM.exidx), (8 bytes).
    Removing port.o(.ARM.exidx), (8 bytes).
    Removing tft_module.o(.rev16_text), (4 bytes).
    Removing tft_module.o(.revsh_text), (4 bytes).
    Removing tft_module.o(i._ZN10TFT_MODULE11switchToTFTEv), (2 bytes).
    Removing tft_module.o(i._ZN10TFT_MODULE13switchToTouchEv), (2 bytes).
    Removing tft_module.o(i._ZN10TFT_MODULE9initTouchEv), (2 bytes).
    Removing tft_module.o(i._ZN10TFT_MODULEC1EP16MDR_PORT_TypeDefS1_S1_S1_tttt), (8 bytes).
    Removing tft_module.o(.ARM.exidx), (8 bytes).
    Removing tft_module.o(.ARM.exidx), (8 bytes).
    Removing tft_module.o(.ARM.exidx), (8 bytes).
    Removing tft_module.o(.ARM.exidx), (8 bytes).
    Removing touchscreen.o(.rev16_text), (4 bytes).
    Removing touchscreen.o(.revsh_text), (4 bytes).
    Removing touchscreen.o(i._ZN11TOUCHSCREEN12switchToReadEP9PortMapIOS1_S1_S1_), (48 bytes).
    Removing touchscreen.o(i._ZN11TOUCHSCREEN13switchToReadXEv), (42 bytes).
    Removing touchscreen.o(i._ZN11TOUCHSCREEN13switchToReadYEv), (42 bytes).
    Removing touchscreen.o(i._ZN11TOUCHSCREEN14switchAsButtonEv), (42 bytes).
    Removing touchscreen.o(i._ZN11TOUCHSCREEN15switchAsDisplayEv), (30 bytes).
    Removing touchscreen.o(i._ZN11TOUCHSCREEN4initEv), (30 bytes).
    Removing touchscreen.o(i._ZN11TOUCHSCREEN6getPosEv), (160 bytes).
    Removing touchscreen.o(i._ZN11TOUCHSCREEN8readAxisEt), (64 bytes).
    Removing touchscreen.o(i._ZN11TOUCHSCREEN9readButonEv), (22 bytes).
    Removing touchscreen.o(i._ZN11TOUCHSCREENC1EP9PortMapIOS1_S1_S1_P5DELAYP3ADC), (40 bytes).
    Removing touchscreen.o(.ARM.exidx), (8 bytes).
    Removing touchscreen.o(.ARM.exidx), (8 bytes).
    Removing touchscreen.o(.ARM.exidx), (8 bytes).
    Removing touchscreen.o(.ARM.exidx), (8 bytes).
    Removing touchscreen.o(.ARM.exidx), (8 bytes).
    Removing touchscreen.o(.ARM.exidx), (8 bytes).
    Removing touchscreen.o(.ARM.exidx), (8 bytes).
    Removing touchscreen.o(.ARM.exidx), (8 bytes).
    Removing touchscreen.o(.ARM.exidx), (8 bytes).
    Removing touchscreen.o(.ARM.exidx), (8 bytes).
    Removing ili9488.o(.rev16_text), (4 bytes).
    Removing ili9488.o(.revsh_text), (4 bytes).
    Removing ili9488.o(i._ZN7ILI948810drawCircleEiii), (2 bytes).
    Removing ili9488.o(i._ZN7ILI948810fillCircleEiii), (108 bytes).
    Removing ili9488.o(i._ZN7ILI948810fillScreenEt), (30 bytes).
    Removing ili9488.o(i._ZN7ILI948811setColor565Ehhh), (24 bytes).
    Removing ili9488.o(i._ZN7ILI948811setRotationEh), (2 bytes).
    Removing ili9488.o(i._ZN7ILI948812getFontXsizeEv), (6 bytes).
    Removing ili9488.o(i._ZN7ILI948812getFontYsizeEv), (6 bytes).
    Removing ili9488.o(i._ZN7ILI948812printChar_x2Ehii), (450 bytes).
    Removing ili9488.o(i._ZN7ILI948812setBackColorEhhh), (38 bytes).
    Removing ili9488.o(i._ZN7ILI948812setBackColorEj), (38 bytes).
    Removing ili9488.o(i._ZN7ILI948812writecommandEh), (20 bytes).
    Removing ili9488.o(i._ZN7ILI948813drawFastHLineEssst), (106 bytes).
    Removing ili9488.o(i._ZN7ILI948813drawFastVLineEssst), (106 bytes).
    Removing ili9488.o(i._ZN7ILI948813invertDisplayEh), (2 bytes).
    Removing ili9488.o(i._ZN7ILI948813setAddrWindowEtttt), (140 bytes).
    Removing ili9488.o(i._ZN7ILI948813setScrollAreaEtt), (92 bytes).
    Removing ili9488.o(i._ZN7ILI948813writeColor565Ev), (26 bytes).
    Removing ili9488.o(i._ZN7ILI948814setOrientationEh), (40 bytes).
    Removing ili9488.o(i._ZN7ILI948815readPixelFormatEv), (26 bytes).
    Removing ili9488.o(i._ZN7ILI94885beginEv), (702 bytes).
    Removing ili9488.o(i._ZN7ILI94885clrXYEv), (56 bytes).
    Removing ili9488.o(i._ZN7ILI94885printEPciiii), (52 bytes).
    Removing ili9488.o(i._ZN7ILI94885setXYEtttt), (210 bytes).
    Removing ili9488.o(i._ZN7ILI94886_printEPciii), (50 bytes).
    Removing ili9488.o(i._ZN7ILI94886scrollEt), (44 bytes).
    Removing ili9488.o(i._ZN7ILI94887getFontEv), (6 bytes).
    Removing ili9488.o(i._ZN7ILI94887setFontEPKh), (28 bytes).
    Removing ili9488.o(i._ZN7ILI94887testPinEv), (34 bytes).
    Removing ili9488.o(i._ZN7ILI94888drawLineEsssst), (118 bytes).
    Removing ili9488.o(i._ZN7ILI94888fillRectEsssst), (170 bytes).
    Removing ili9488.o(i._ZN7ILI94888sendasIOEPh), (52 bytes).
    Removing ili9488.o(i._ZN7ILI94888setColorEhhh), (56 bytes).
    Removing ili9488.o(i._ZN7ILI94888setColorEt), (34 bytes).
    Removing ili9488.o(i._ZN7ILI94888setPixelEt), (32 bytes).
    Removing ili9488.o(i._ZN7ILI94888setPixelEv), (26 bytes).
    Removing ili9488.o(i._ZN7ILI94888spiwriteEh), (2 bytes).
    Removing ili9488.o(i._ZN7ILI94889drawImageEPKhtttt), (116 bytes).
    Removing ili9488.o(i._ZN7ILI94889drawPixelEss), (54 bytes).
    Removing ili9488.o(i._ZN7ILI94889drawPixelEsst), (92 bytes).
    Removing ili9488.o(i._ZN7ILI94889hardResetEv), (48 bytes).
    Removing ili9488.o(i._ZN7ILI94889printCharEhii), (290 bytes).
    Removing ili9488.o(i._ZN7ILI94889testLinesEh), (2 bytes).
    Removing ili9488.o(i._ZN7ILI94889writeLineEsssst), (236 bytes).
    Removing ili9488.o(i._ZN7ILI94889writedataEh), (20 bytes).
    Removing ili9488.o(i._ZN7ILI9488C1EP9PortMapIOS1_S1_S1_S1_S1_S1_S1_S1_S1_S1_S1_S1_P16MDR_PORT_TypeDef), (242 bytes).
    Removing ili9488.o(i._ZN7ILI9488C1Ev), (24 bytes).
    Removing ili9488.o(.ARM.exidx), (8 bytes).
    Removing ili9488.o(.ARM.exidx), (8 bytes).
    Removing ili9488.o(.ARM.exidx), (8 bytes).
    Removing ili9488.o(.ARM.exidx), (8 bytes).
    Removing ili9488.o(.ARM.exidx), (8 bytes).
    Removing ili9488.o(.ARM.exidx), (8 bytes).
    Removing ili9488.o(.ARM.exidx), (8 bytes).
    Removing ili9488.o(.ARM.exidx), (8 bytes).
    Removing ili9488.o(.ARM.exidx), (8 bytes).
    Removing ili9488.o(.ARM.exidx), (8 bytes).
    Removing ili9488.o(.ARM.exidx), (8 bytes).
    Removing ili9488.o(.ARM.exidx), (8 bytes).
    Removing ili9488.o(.ARM.exidx), (8 bytes).
    Removing ili9488.o(.ARM.exidx), (8 bytes).
    Removing ili9488.o(.ARM.exidx), (8 bytes).
    Removing ili9488.o(.ARM.exidx), (8 bytes).
    Removing ili9488.o(.ARM.exidx), (8 bytes).
    Removing ili9488.o(.ARM.exidx), (8 bytes).
    Removing ili9488.o(.ARM.exidx), (8 bytes).
    Removing ili9488.o(.ARM.exidx), (8 bytes).
    Removing ili9488.o(.ARM.exidx), (8 bytes).
    Removing ili9488.o(.ARM.exidx), (8 bytes).
    Removing ili9488.o(.ARM.exidx), (8 bytes).
    Removing ili9488.o(.ARM.exidx), (8 bytes).
    Removing ili9488.o(.ARM.exidx), (8 bytes).
    Removing ili9488.o(.ARM.exidx), (8 bytes).
    Removing ili9488.o(.ARM.exidx), (8 bytes).
    Removing ili9488.o(.ARM.exidx), (8 bytes).
    Removing ili9488.o(.ARM.exidx), (8 bytes).
    Removing ili9488.o(.ARM.exidx), (8 bytes).
    Removing ili9488.o(.ARM.exidx), (8 bytes).
    Removing ili9488.o(.ARM.exidx), (8 bytes).
    Removing ili9488.o(.ARM.exidx), (8 bytes).
    Removing ili9488.o(.ARM.exidx), (8 bytes).
    Removing ili9488.o(.ARM.exidx), (8 bytes).
    Removing ili9488.o(.ARM.exidx), (8 bytes).
    Removing ili9488.o(.ARM.exidx), (8 bytes).
    Removing ili9488.o(.ARM.exidx), (8 bytes).
    Removing ili9488.o(.ARM.exidx), (8 bytes).
    Removing ili9488.o(.ARM.exidx), (8 bytes).
    Removing ili9488.o(.ARM.exidx), (8 bytes).
    Removing ili9488.o(.ARM.exidx), (8 bytes).
    Removing ili9488.o(.ARM.exidx), (8 bytes).
    Removing ili9488.o(.ARM.exidx), (8 bytes).
    Removing ili9488.o(.ARM.exidx), (8 bytes).
    Removing ili9488.o(.ARM.exidx), (8 bytes).
    Removing defaultfonts.o(.constdata), (6192 bytes).
    Removing timers.o(.rev16_text), (4 bytes).
    Removing timers.o(.revsh_text), (4 bytes).
    Removing timers.o(i._ZN5TIMER11setPeriodHzEt), (2 bytes).
    Removing timers.o(i._ZN5TIMER12setPeriodSecEt), (2 bytes).
    Removing timers.o(i._ZN5TIMER13setPeriodmSecEt), (148 bytes).
    Removing timers.o(i._ZN5TIMER13setPerioduSecEt), (92 bytes).
    Removing timers.o(i._ZN5TIMER4initEP17MDR_TIMER_TypeDef), (216 bytes).
    Removing timers.o(i._ZN5TIMERC1EP17MDR_TIMER_TypeDef), (4 bytes).
    Removing timers.o(.ARM.exidx), (8 bytes).
    Removing timers.o(.ARM.exidx), (8 bytes).
    Removing timers.o(.ARM.exidx), (8 bytes).
    Removing timers.o(.ARM.exidx), (8 bytes).
    Removing timers.o(.ARM.exidx), (8 bytes).
    Removing timers.o(.ARM.exidx), (8 bytes).
    Removing mdr32f9qx_it.o(.rev16_text), (4 bytes).
    Removing mdr32f9qx_it.o(.revsh_text), (4 bytes).
    Removing mdr32f9qx_it.o(i.BACKUP_IRQHandler), (2 bytes).
    Removing mdr32f9qx_it.o(i.BusFault_Handler), (4 bytes).
    Removing mdr32f9qx_it.o(i.COMPARATOR_IRQHandler), (2 bytes).
    Removing mdr32f9qx_it.o(i.DebugMon_Handler), (2 bytes).
    Removing mdr32f9qx_it.o(i.I2C_IRQHandler), (2 bytes).
    Removing mdr32f9qx_it.o(i.MemManage_Handler), (4 bytes).
    Removing mdr32f9qx_it.o(i.Timer2_IRQHandler), (2 bytes).
    Removing mdr32f9qx_it.o(i.Timer3_IRQHandler), (2 bytes).
    Removing mdr32f9qx_it.o(i.UsageFault_Handler), (4 bytes).
    Removing mdr32f9qx_it.o(.ARM.exidx), (8 bytes).
    Removing mdr32f9qx_it.o(.ARM.exidx), (8 bytes).
    Removing mdr32f9qx_it.o(.ARM.exidx), (8 bytes).
    Removing mdr32f9qx_it.o(.ARM.exidx), (8 bytes).
    Removing mdr32f9qx_it.o(.ARM.exidx), (8 bytes).
    Removing mdr32f9qx_it.o(.ARM.exidx), (8 bytes).
    Removing mdr32f9qx_it.o(.ARM.exidx), (8 bytes).
    Removing mdr32f9qx_it.o(.ARM.exidx), (8 bytes).
    Removing mdr32f9qx_it.o(.ARM.exidx), (8 bytes).
    Removing mdr32f9qx_it.o(.ARM.exidx), (8 bytes).
    Removing mdr32f9qx_it.o(.ARM.exidx), (8 bytes).
    Removing mdr32f9qx_it.o(.ARM.exidx), (8 bytes).
    Removing mdr32f9qx_it.o(.ARM.exidx), (8 bytes).
    Removing mdr32f9qx_it.o(.ARM.exidx), (8 bytes).
    Removing mdr32f9qx_it.o(.ARM.exidx), (8 bytes).
    Removing mdr32f9qx_it.o(.ARM.exidx), (8 bytes).
    Removing mdr32f9qx_it.o(.ARM.exidx), (8 bytes).
    Removing mdr32f9qx_it.o(.ARM.exidx), (8 bytes).
    Removing mdr32f9qx_it.o(.ARM.exidx), (8 bytes).
    Removing mdr32f9qx_it.o(.ARM.exidx), (8 bytes).
    Removing mdr32f9qx_it.o(.ARM.exidx), (8 bytes).
    Removing mdr32f9qx_it.o(.ARM.exidx), (8 bytes).
    Removing mdr32f9qx_it.o(.ARM.exidx), (8 bytes).
    Removing mdr32f9qx_it.o(.ARM.exidx), (8 bytes).
    Removing mdr32f9qx_it.o(.ARM.exidx), (8 bytes).
    Removing mdr32f9qx_it.o(.ARM.exidx), (8 bytes).
    Removing mdr32f9qx_it.o(.ARM.exidx), (8 bytes).
    Removing mdr32f9qx_it.o(.ARM.exidx), (8 bytes).
    Removing mdr32f9qx_it.o(.ARM.exidx), (8 bytes).
    Removing delay.o(.rev16_text), (4 bytes).
    Removing delay.o(.revsh_text), (4 bytes).
    Removing delay.o(.ARM.exidx), (8 bytes).
    Removing delay.o(.ARM.exidx), (8 bytes).
    Removing delay.o(.ARM.exidx), (8 bytes).
    Removing delay.o(.ARM.exidx), (8 bytes).
    Removing max31865.o(.rev16_text), (4 bytes).
    Removing max31865.o(.revsh_text), (4 bytes).
    Removing max31865.o(i._ZN8MAX3186510clearFaultEv), (38 bytes).
    Removing max31865.o(i._ZN8MAX3186510enable50HzEb), (42 bytes).
    Removing max31865.o(i._ZN8MAX3186510enableBiasEb), (46 bytes).
    Removing max31865.o(i._ZN8MAX3186510readAllRegEv), (24 bytes).
    Removing max31865.o(i._ZN8MAX3186511autoConvertEb), (46 bytes).
    Removing max31865.o(i._ZN8MAX3186511temperatureEdd), (516 bytes).
    Removing max31865.o(i._ZN8MAX3186513readRegister8Eh), (28 bytes).
    Removing max31865.o(i._ZN8MAX3186513readRegisterNEhPhh), (70 bytes).
    Removing max31865.o(i._ZN8MAX3186514readRegister16Eh), (36 bytes).
    Removing max31865.o(i._ZN8MAX3186514writeRegister8Ehh), (42 bytes).
    Removing max31865.o(i._ZN8MAX318655beginE17max31865_numwires), (40 bytes).
    Removing max31865.o(i._ZN8MAX318657readRTDEv), (82 bytes).
    Removing max31865.o(i._ZN8MAX318658setWiresE17max31865_numwires), (46 bytes).
    Removing max31865.o(i._ZN8MAX318659readFaultEv), (14 bytes).
    Removing max31865.o(i._ZN8MAX31865C1EP3SPIP9PortMapIO), (44 bytes).
    Removing max31865.o(.ARM.exidx), (8 bytes).
    Removing max31865.o(.ARM.exidx), (8 bytes).
    Removing max31865.o(.ARM.exidx), (8 bytes).
    Removing max31865.o(.ARM.exidx), (8 bytes).
    Removing max31865.o(.ARM.exidx), (8 bytes).
    Removing max31865.o(.ARM.exidx), (8 bytes).
    Removing max31865.o(.ARM.exidx), (8 bytes).
    Removing max31865.o(.ARM.exidx), (8 bytes).
    Removing max31865.o(.ARM.exidx), (8 bytes).
    Removing max31865.o(.ARM.exidx), (8 bytes).
    Removing max31865.o(.ARM.exidx), (8 bytes).
    Removing max31865.o(.ARM.exidx), (8 bytes).
    Removing max31865.o(.ARM.exidx), (8 bytes).
    Removing max31865.o(.ARM.exidx), (8 bytes).
    Removing max31865.o(.ARM.exidx), (8 bytes).
    Removing max31865.o(.data), (8 bytes).
    Removing adc.o(.rev16_text), (4 bytes).
    Removing adc.o(.revsh_text), (4 bytes).
    Removing adc.o(i._ZN3ADC10setChannelEj), (14 bytes).
    Removing adc.o(i._ZN3ADC11setChannelsEj), (14 bytes).
    Removing adc.o(i._ZN3ADC23switchToSinglConversionEv), (20 bytes).
    Removing adc.o(i._ZN3ADC25switchToCicliclConversionEv), (20 bytes).
    Removing adc.o(i._ZN3ADC4StopEv), (20 bytes).
    Removing adc.o(i._ZN3ADC4initEv), (132 bytes).
    Removing adc.o(i._ZN3ADC5StartEv), (20 bytes).
    Removing adc.o(i._ZN3ADC6IRQ_ONEv), (32 bytes).
    Removing adc.o(i._ZN3ADC8readDataEv), (16 bytes).
    Removing adc.o(i._ZN3ADCC1EP9PortMapIO), (28 bytes).
    Removing adc.o(i._ZN3ADCC1Ev), (24 bytes).
    Removing adc.o(.ARM.exidx), (8 bytes).
    Removing adc.o(.ARM.exidx), (8 bytes).
    Removing adc.o(.ARM.exidx), (8 bytes).
    Removing adc.o(.ARM.exidx), (8 bytes).
    Removing adc.o(.ARM.exidx), (8 bytes).
    Removing adc.o(.ARM.exidx), (8 bytes).
    Removing adc.o(.ARM.exidx), (8 bytes).
    Removing adc.o(.ARM.exidx), (8 bytes).
    Removing adc.o(.ARM.exidx), (8 bytes).
    Removing adc.o(.ARM.exidx), (8 bytes).
    Removing adc.o(.ARM.exidx), (8 bytes).
    Removing uart.o(.rev16_text), (4 bytes).
    Removing uart.o(.revsh_text), (4 bytes).
    Removing uart.o(i._Z14NVIC_EnableIRQ4IRQn), (20 bytes).
    Removing uart.o(i._ZN4UART10sendStringEPc), (40 bytes).
    Removing uart.o(i._ZN4UART8ITConfigEP16MDR_UART_TypeDefj15FunctionalState), (22 bytes).
    Removing uart.o(i._ZN4UART8sendByteEh), (44 bytes).
    Removing uart.o(i._ZN4UART9enableIRQEv), (44 bytes).
    Removing uart.o(i._ZN4UART9sendBytesEPht), (46 bytes).
    Removing uart.o(i._ZN4UARTC1EP16MDR_UART_TypeDefjttttt), (124 bytes).
    Removing uart.o(.ARM.exidx), (8 bytes).
    Removing uart.o(.ARM.exidx), (8 bytes).
    Removing uart.o(.ARM.exidx), (8 bytes).
    Removing uart.o(.ARM.exidx), (8 bytes).
    Removing uart.o(.ARM.exidx), (8 bytes).
    Removing uart.o(.ARM.exidx), (8 bytes).
    Removing uart.o(.ARM.exidx), (8 bytes).
    Removing hef4051.o(.rev16_text), (4 bytes).
    Removing hef4051.o(.revsh_text), (4 bytes).
    Removing hef4051.o(i._ZN7HEF405110selectLineEh), (116 bytes).
    Removing hef4051.o(i._ZN7HEF40512ENEv), (12 bytes).
    Removing hef4051.o(i._ZN7HEF40513DESEv), (12 bytes).
    Removing hef4051.o(i._ZN7HEF4051C1EP9PortMapIOS1_S1_S1_), (32 bytes).
    Removing hef4051.o(.ARM.exidx), (8 bytes).
    Removing hef4051.o(.ARM.exidx), (8 bytes).
    Removing hef4051.o(.ARM.exidx), (8 bytes).
    Removing hef4051.o(.ARM.exidx), (8 bytes).
    Removing rcc.o(.rev16_text), (4 bytes).
    Removing rcc.o(.revsh_text), (4 bytes).
    Removing rcc.o(i._ZN3RCC11setSysClockEh), (156 bytes).
    Removing rcc.o(i._ZN3RCCC1Eh), (22 bytes).
    Removing rcc.o(.ARM.exidx), (8 bytes).
    Removing rcc.o(.ARM.exidx), (8 bytes).
    Removing w25qxx.o(.rev16_text), (4 bytes).
    Removing w25qxx.o(.revsh_text), (4 bytes).
    Removing w25qxx.o(i.W25qxx_BlockToPage), (24 bytes).
    Removing w25qxx.o(i.W25qxx_EraseBlock), (156 bytes).
    Removing w25qxx.o(i.W25qxx_EraseChip), (92 bytes).
    Removing w25qxx.o(i.W25qxx_IsEmptyBlock), (376 bytes).
    Removing w25qxx.o(i.W25qxx_IsEmptyPage), (384 bytes).
    Removing w25qxx.o(i.W25qxx_IsEmptySector), (376 bytes).
    Removing w25qxx.o(i.W25qxx_PageToBlock), (24 bytes).
    Removing w25qxx.o(i.W25qxx_ReadBlock), (152 bytes).
    Removing w25qxx.o(i.W25qxx_ReadByte), (136 bytes).
    Removing w25qxx.o(i.W25qxx_ReadBytes), (160 bytes).
    Removing w25qxx.o(i.W25qxx_ReadSector), (152 bytes).
    Removing w25qxx.o(i.W25qxx_SectorToBlock), (24 bytes).
    Removing w25qxx.o(i.W25qxx_SectorToPage), (24 bytes).
    Removing w25qxx.o(i.W25qxx_WriteBlock), (152 bytes).
    Removing w25qxx.o(i.W25qxx_WriteByte), (144 bytes).
    Removing w25qxx.o(i.W25qxx_WriteSector), (152 bytes).
    Removing w25qxx.o(i.W25qxx_WriteStatusRegister), (84 bytes).
    Removing w25qxx.o(i._Z19W25qxx_WriteDisablev), (48 bytes).
    Removing w25qxx.o(.ARM.exidx), (8 bytes).
    Removing w25qxx.o(.ARM.exidx), (8 bytes).
    Removing w25qxx.o(.ARM.exidx), (8 bytes).
    Removing w25qxx.o(.ARM.exidx), (8 bytes).
    Removing w25qxx.o(.ARM.exidx), (8 bytes).
    Removing w25qxx.o(.ARM.exidx), (8 bytes).
    Removing w25qxx.o(.ARM.exidx), (8 bytes).
    Removing w25qxx.o(.ARM.exidx), (8 bytes).
    Removing w25qxx.o(.ARM.exidx), (8 bytes).
    Removing w25qxx.o(.ARM.exidx), (8 bytes).
    Removing w25qxx.o(.ARM.exidx), (8 bytes).
    Removing w25qxx.o(.ARM.exidx), (8 bytes).
    Removing w25qxx.o(.ARM.exidx), (8 bytes).
    Removing w25qxx.o(.ARM.exidx), (8 bytes).
    Removing w25qxx.o(.ARM.exidx), (8 bytes).
    Removing w25qxx.o(.ARM.exidx), (8 bytes).
    Removing w25qxx.o(.ARM.exidx), (8 bytes).
    Removing w25qxx.o(.ARM.exidx), (8 bytes).
    Removing w25qxx.o(.ARM.exidx), (8 bytes).
    Removing w25qxx.o(.ARM.exidx), (8 bytes).
    Removing w25qxx.o(.ARM.exidx), (8 bytes).
    Removing w25qxx.o(.ARM.exidx), (8 bytes).
    Removing w25qxx.o(.ARM.exidx), (8 bytes).
    Removing w25qxx.o(.ARM.exidx), (8 bytes).
    Removing w25qxx.o(.ARM.exidx), (8 bytes).
    Removing w25qxx.o(.ARM.exidx), (8 bytes).
    Removing w25qxx.o(.ARM.exidx), (8 bytes).
    Removing w25qxx.o(.ARM.exidx), (8 bytes).
    Removing w25qxx.o(.ARM.exidx), (8 bytes).
    Removing w25qxx.o(.ARM.exidx), (8 bytes).
    Removing w25qxx.o(.ARM.exidx), (8 bytes).
    Removing w25qxx.o(.ARM.exidx), (8 bytes).
    Removing w25qxx.o(.ARM.exidx), (8 bytes).
    Removing w25qxx.o(.ARM.exidx), (8 bytes).
    Removing system_mdr1986ve1t.o(.rev16_text), (4 bytes).
    Removing system_mdr1986ve1t.o(.revsh_text), (4 bytes).
    Removing mdr32f9qx_adc.o(.rev16_text), (4 bytes).
    Removing mdr32f9qx_adc.o(.revsh_text), (4 bytes).
    Removing mdr32f9qx_adc.o(i.ADC1_ChannelSwithingConfig), (28 bytes).
    Removing mdr32f9qx_adc.o(i.ADC1_ClearOutOfRangeFlag), (20 bytes).
    Removing mdr32f9qx_adc.o(i.ADC1_ClearOverwriteFlag), (20 bytes).
    Removing mdr32f9qx_adc.o(i.ADC1_Cmd), (32 bytes).
    Removing mdr32f9qx_adc.o(i.ADC1_GetFlagStatus), (24 bytes).
    Removing mdr32f9qx_adc.o(i.ADC1_GetITStatus), (28 bytes).
    Removing mdr32f9qx_adc.o(i.ADC1_GetResult), (12 bytes).
    Removing mdr32f9qx_adc.o(i.ADC1_GetStatus), (12 bytes).
    Removing mdr32f9qx_adc.o(i.ADC1_ITConfig), (36 bytes).
    Removing mdr32f9qx_adc.o(i.ADC1_Init), (96 bytes).
    Removing mdr32f9qx_adc.o(i.ADC1_LevelsConfig), (32 bytes).
    Removing mdr32f9qx_adc.o(i.ADC1_OperationModeConfig), (32 bytes).
    Removing mdr32f9qx_adc.o(i.ADC1_SamplingModeConfig), (28 bytes).
    Removing mdr32f9qx_adc.o(i.ADC1_SetChannel), (32 bytes).
    Removing mdr32f9qx_adc.o(i.ADC1_SetChannels), (12 bytes).
    Removing mdr32f9qx_adc.o(i.ADC1_SetHighLevel), (12 bytes).
    Removing mdr32f9qx_adc.o(i.ADC1_SetLowLevel), (12 bytes).
    Removing mdr32f9qx_adc.o(i.ADC1_Start), (20 bytes).
    Removing mdr32f9qx_adc.o(i.ADC_DeInit), (32 bytes).
    Removing mdr32f9qx_adc.o(i.ADC_GetFlagStatus), (24 bytes).
    Removing mdr32f9qx_adc.o(i.ADC_GetITStatus), (30 bytes).
    Removing mdr32f9qx_adc.o(i.ADC_GetStatus), (12 bytes).
    Removing mdr32f9qx_adc.o(i.ADC_ITConfig), (40 bytes).
    Removing mdr32f9qx_adc.o(i.ADC_Init), (52 bytes).
    Removing mdr32f9qx_adc.o(i.ADC_SetTrim), (28 bytes).
    Removing mdr32f9qx_adc.o(i.ADC_StructInit), (16 bytes).
    Removing mdr32f9qx_adc.o(i.ADCx_StructInit), (28 bytes).
    Removing mdr32f9qx_dma.o(.rev16_text), (4 bytes).
    Removing mdr32f9qx_dma.o(.revsh_text), (4 bytes).
    Removing mdr32f9qx_dma.o(i.DMA_ClearError), (12 bytes).
    Removing mdr32f9qx_dma.o(i.DMA_Cmd), (28 bytes).
    Removing mdr32f9qx_dma.o(i.DMA_CtrlDataInit), (108 bytes).
    Removing mdr32f9qx_dma.o(i.DMA_CtrlInit), (56 bytes).
    Removing mdr32f9qx_dma.o(i.DMA_DeInit), (64 bytes).
    Removing mdr32f9qx_dma.o(i.DMA_GetCurrTransferCounter), (48 bytes).
    Removing mdr32f9qx_dma.o(i.DMA_GetFlagStatus), (188 bytes).
    Removing mdr32f9qx_dma.o(i.DMA_Init), (152 bytes).
    Removing mdr32f9qx_dma.o(i.DMA_Request), (16 bytes).
    Removing mdr32f9qx_dma.o(i.DMA_SG_CtrlInit), (20 bytes).
    Removing mdr32f9qx_dma.o(i.DMA_SG_Init), (160 bytes).
    Removing mdr32f9qx_dma.o(i.DMA_SG_StructInit), (18 bytes).
    Removing mdr32f9qx_dma.o(i.DMA_StructInit), (16 bytes).
    Removing mdr32f9qx_dma.o(EXECUTABLE_MEMORY_SECTION), (1024 bytes).
    Removing mdr32f9qx_port.o(.rev16_text), (4 bytes).
    Removing mdr32f9qx_port.o(.revsh_text), (4 bytes).
    Removing mdr32f9qx_port.o(i.PORT_DeInit), (20 bytes).
    Removing mdr32f9qx_port.o(i.PORT_ReadInputData), (6 bytes).
    Removing mdr32f9qx_port.o(i.PORT_ReadInputDataBit), (18 bytes).
    Removing mdr32f9qx_port.o(i.PORT_ResetBits), (4 bytes).
    Removing mdr32f9qx_port.o(i.PORT_SetBits), (4 bytes).
    Removing mdr32f9qx_port.o(i.PORT_Write), (4 bytes).
    Removing mdr32f9qx_port.o(i.PORT_WriteBit), (12 bytes).
    Removing mdr32f9qx_rst_clk.o(.rev16_text), (4 bytes).
    Removing mdr32f9qx_rst_clk.o(.revsh_text), (4 bytes).
    Removing mdr32f9qx_rst_clk.o(i.RST_CLK_ADCclkEnable), (40 bytes).
    Removing mdr32f9qx_rst_clk.o(i.RST_CLK_ADCclkPrescaler), (32 bytes).
    Removing mdr32f9qx_rst_clk.o(i.RST_CLK_ADCclkSelection), (32 bytes).
    Removing mdr32f9qx_rst_clk.o(i.RST_CLK_CPU_PLLcmd), (36 bytes).
    Removing mdr32f9qx_rst_clk.o(i.RST_CLK_CPU_PLLconfig), (84 bytes).
    Removing mdr32f9qx_rst_clk.o(i.RST_CLK_CPU_PLLstatus), (56 bytes).
    Removing mdr32f9qx_rst_clk.o(i.RST_CLK_CPU_PLLuse), (36 bytes).
    Removing mdr32f9qx_rst_clk.o(i.RST_CLK_CPUclkPrescaler), (28 bytes).
    Removing mdr32f9qx_rst_clk.o(i.RST_CLK_CPUclkSelection), (32 bytes).
    Removing mdr32f9qx_rst_clk.o(i.RST_CLK_CPUclkSelectionC1), (28 bytes).
    Removing mdr32f9qx_rst_clk.o(i.RST_CLK_DeInit), (48 bytes).
    Removing mdr32f9qx_rst_clk.o(i.RST_CLK_GetClocksFreq), (516 bytes).
    Removing mdr32f9qx_rst_clk.o(i.RST_CLK_GetFlagStatus), (52 bytes).
    Removing mdr32f9qx_rst_clk.o(i.RST_CLK_HSE2config), (60 bytes).
    Removing mdr32f9qx_rst_clk.o(i.RST_CLK_HSE2status), (56 bytes).
    Removing mdr32f9qx_rst_clk.o(i.RST_CLK_HSEclkPrescaler), (28 bytes).
    Removing mdr32f9qx_rst_clk.o(i.RST_CLK_HSEconfig), (60 bytes).
    Removing mdr32f9qx_rst_clk.o(i.RST_CLK_HSEstatus), (56 bytes).
    Removing mdr32f9qx_rst_clk.o(i.RST_CLK_HSIadjust), (32 bytes).
    Removing mdr32f9qx_rst_clk.o(i.RST_CLK_HSIclkPrescaler), (28 bytes).
    Removing mdr32f9qx_rst_clk.o(i.RST_CLK_HSIcmd), (40 bytes).
    Removing mdr32f9qx_rst_clk.o(i.RST_CLK_HSIstatus), (56 bytes).
    Removing mdr32f9qx_rst_clk.o(i.RST_CLK_LSEconfig), (60 bytes).
    Removing mdr32f9qx_rst_clk.o(i.RST_CLK_LSEstatus), (56 bytes).
    Removing mdr32f9qx_rst_clk.o(i.RST_CLK_LSIadjust), (32 bytes).
    Removing mdr32f9qx_rst_clk.o(i.RST_CLK_LSIcmd), (40 bytes).
    Removing mdr32f9qx_rst_clk.o(i.RST_CLK_LSIstatus), (56 bytes).
    Removing mdr32f9qx_rst_clk.o(i.RST_CLK_RTC_HSEclkEnable), (40 bytes).
    Removing mdr32f9qx_rst_clk.o(i.RST_CLK_RTC_HSIclkEnable), (40 bytes).
    Removing mdr32f9qx_rst_clk.o(i.RST_CLK_USB_PLLcmd), (32 bytes).
    Removing mdr32f9qx_rst_clk.o(i.RST_CLK_USB_PLLconfig), (80 bytes).
    Removing mdr32f9qx_rst_clk.o(i.RST_CLK_USB_PLLstatus), (56 bytes).
    Removing mdr32f9qx_rst_clk.o(i.RST_CLK_USB_PLLuse), (36 bytes).
    Removing mdr32f9qx_rst_clk.o(i.RST_CLK_USBclkEnable), (40 bytes).
    Removing mdr32f9qx_rst_clk.o(i.RST_CLK_USBclkPrescaler), (36 bytes).
    Removing mdr32f9qx_rst_clk.o(i.RST_CLK_WarmDeInit), (124 bytes).
    Removing mdr32f9qx_ssp.o(.rev16_text), (4 bytes).
    Removing mdr32f9qx_ssp.o(.revsh_text), (4 bytes).
    Removing mdr32f9qx_ssp.o(i.SSP_ClearITPendingBit), (8 bytes).
    Removing mdr32f9qx_ssp.o(i.SSP_DMACmd), (26 bytes).
    Removing mdr32f9qx_ssp.o(i.SSP_DeInit), (18 bytes).
    Removing mdr32f9qx_ssp.o(i.SSP_GetITStatus), (18 bytes).
    Removing mdr32f9qx_ssp.o(i.SSP_GetITStatusMasked), (18 bytes).
    Removing mdr32f9qx_ssp.o(i.SSP_ITConfig), (20 bytes).
    Removing mdr32f9qx_timer.o(.rev16_text), (4 bytes).
    Removing mdr32f9qx_timer.o(.revsh_text), (4 bytes).
    Removing mdr32f9qx_timer.o(i.TIMER_BRGInit), (164 bytes).
    Removing mdr32f9qx_timer.o(i.TIMER_BRKPolarityConfig), (14 bytes).
    Removing mdr32f9qx_timer.o(i.TIMER_ChnBRKResetConfig), (30 bytes).
    Removing mdr32f9qx_timer.o(i.TIMER_ChnCCR1_Cmd), (36 bytes).
    Removing mdr32f9qx_timer.o(i.TIMER_ChnCCR1_EventSourceConfig), (24 bytes).
    Removing mdr32f9qx_timer.o(i.TIMER_ChnCapturePrescalerConfig), (30 bytes).
    Removing mdr32f9qx_timer.o(i.TIMER_ChnCompare1Config), (42 bytes).
    Removing mdr32f9qx_timer.o(i.TIMER_ChnCompareConfig), (42 bytes).
    Removing mdr32f9qx_timer.o(i.TIMER_ChnETRResetConfig), (30 bytes).
    Removing mdr32f9qx_timer.o(i.TIMER_ChnETR_Cmd), (40 bytes).
    Removing mdr32f9qx_timer.o(i.TIMER_ChnEventSourceConfig), (28 bytes).
    Removing mdr32f9qx_timer.o(i.TIMER_ChnFilterConfig), (24 bytes).
    Removing mdr32f9qx_timer.o(i.TIMER_ChnInit), (74 bytes).
    Removing mdr32f9qx_timer.o(i.TIMER_ChnNOutConfig), (42 bytes).
    Removing mdr32f9qx_timer.o(i.TIMER_ChnNOutModeConfig), (32 bytes).
    Removing mdr32f9qx_timer.o(i.TIMER_ChnNOutPolarityConfig), (32 bytes).
    Removing mdr32f9qx_timer.o(i.TIMER_ChnNOutSourceConfig), (32 bytes).
    Removing mdr32f9qx_timer.o(i.TIMER_ChnOutConfig), (34 bytes).
    Removing mdr32f9qx_timer.o(i.TIMER_ChnOutDTGConfig), (20 bytes).
    Removing mdr32f9qx_timer.o(i.TIMER_ChnOutInit), (66 bytes).
    Removing mdr32f9qx_timer.o(i.TIMER_ChnOutModeConfig), (24 bytes).
    Removing mdr32f9qx_timer.o(i.TIMER_ChnOutPolarityConfig), (30 bytes).
    Removing mdr32f9qx_timer.o(i.TIMER_ChnOutSourceConfig), (30 bytes).
    Removing mdr32f9qx_timer.o(i.TIMER_ChnOutStructInit), (22 bytes).
    Removing mdr32f9qx_timer.o(i.TIMER_ChnREFFormatConfig), (30 bytes).
    Removing mdr32f9qx_timer.o(i.TIMER_ChnStructInit), (28 bytes).
    Removing mdr32f9qx_timer.o(i.TIMER_ClearFlag), (6 bytes).
    Removing mdr32f9qx_timer.o(i.TIMER_Cmd), (22 bytes).
    Removing mdr32f9qx_timer.o(i.TIMER_CntAutoreloadConfig), (22 bytes).
    Removing mdr32f9qx_timer.o(i.TIMER_CntEventSourceConfig), (22 bytes).
    Removing mdr32f9qx_timer.o(i.TIMER_CntInit), (54 bytes).
    Removing mdr32f9qx_timer.o(i.TIMER_CntStructInit), (28 bytes).
    Removing mdr32f9qx_timer.o(i.TIMER_CounterModeConfig), (20 bytes).
    Removing mdr32f9qx_timer.o(i.TIMER_DMACmd), (68 bytes).
    Removing mdr32f9qx_timer.o(i.TIMER_DeInit), (86 bytes).
    Removing mdr32f9qx_timer.o(i.TIMER_ETRFilterConfig), (22 bytes).
    Removing mdr32f9qx_timer.o(i.TIMER_ETRInputConfig), (26 bytes).
    Removing mdr32f9qx_timer.o(i.TIMER_ETRPolarityConfig), (20 bytes).
    Removing mdr32f9qx_timer.o(i.TIMER_ETRPrescalerConfig), (20 bytes).
    Removing mdr32f9qx_timer.o(i.TIMER_FilterSamplingConfig), (20 bytes).
    Removing mdr32f9qx_timer.o(i.TIMER_GetChnCapture), (16 bytes).
    Removing mdr32f9qx_timer.o(i.TIMER_GetChnCapture1), (16 bytes).
    Removing mdr32f9qx_timer.o(i.TIMER_GetChnWriteComplete), (32 bytes).
    Removing mdr32f9qx_timer.o(i.TIMER_GetCntAutoreload), (6 bytes).
    Removing mdr32f9qx_timer.o(i.TIMER_GetCntPrescaler), (8 bytes).
    Removing mdr32f9qx_timer.o(i.TIMER_GetCntWriteComplete), (20 bytes).
    Removing mdr32f9qx_timer.o(i.TIMER_GetCounter), (6 bytes).
    Removing mdr32f9qx_timer.o(i.TIMER_GetCounterDirection), (20 bytes).
    Removing mdr32f9qx_timer.o(i.TIMER_GetFlagStatus), (18 bytes).
    Removing mdr32f9qx_timer.o(i.TIMER_GetITStatus), (26 bytes).
    Removing mdr32f9qx_timer.o(i.TIMER_GetStatus), (6 bytes).
    Removing mdr32f9qx_timer.o(i.TIMER_ITConfig), (28 bytes).
    Removing mdr32f9qx_timer.o(i.TIMER_SetChnCompare), (14 bytes).
    Removing mdr32f9qx_timer.o(i.TIMER_SetChnCompare1), (14 bytes).
    Removing mdr32f9qx_timer.o(i.TIMER_SetCntAutoreload), (4 bytes).
    Removing mdr32f9qx_timer.o(i.TIMER_SetCntPrescaler), (4 bytes).
    Removing mdr32f9qx_timer.o(i.TIMER_SetCounter), (4 bytes).
    Removing mdr32f9qx_timer.o(i.TIMER_SetCounterDirection), (20 bytes).
    Removing mdr32f9qx_uart.o(.rev16_text), (4 bytes).
    Removing mdr32f9qx_uart.o(.revsh_text), (4 bytes).
    Removing mdr32f9qx_uart.o(i.UART_BRGInit), (76 bytes).
    Removing mdr32f9qx_uart.o(i.UART_BreakLine), (28 bytes).
    Removing mdr32f9qx_uart.o(i.UART_ClearITPendingBit), (8 bytes).
    Removing mdr32f9qx_uart.o(i.UART_Cmd), (28 bytes).
    Removing mdr32f9qx_uart.o(i.UART_DMACmd), (26 bytes).
    Removing mdr32f9qx_uart.o(i.UART_DMAConfig), (8 bytes).
    Removing mdr32f9qx_uart.o(i.UART_DeInit), (38 bytes).
    Removing mdr32f9qx_uart.o(i.UART_GetFlagStatus), (18 bytes).
    Removing mdr32f9qx_uart.o(i.UART_GetITStatus), (18 bytes).
    Removing mdr32f9qx_uart.o(i.UART_GetITStatusMasked), (18 bytes).
    Removing mdr32f9qx_uart.o(i.UART_ITConfig), (20 bytes).
    Removing mdr32f9qx_uart.o(i.UART_Init), (212 bytes).
    Removing mdr32f9qx_uart.o(i.UART_IrDACmd), (28 bytes).
    Removing mdr32f9qx_uart.o(i.UART_IrDAConfig), (42 bytes).
    Removing mdr32f9qx_uart.o(i.UART_ReceiveData), (8 bytes).
    Removing mdr32f9qx_uart.o(i.UART_SendData), (4 bytes).
    Removing mdr32f9qx_uart.o(i.UART_StructInit), (24 bytes).
    Removing mdr32f9qx_wwdg.o(.rev16_text), (4 bytes).
    Removing mdr32f9qx_wwdg.o(.revsh_text), (4 bytes).
    Removing mdr32f9qx_wwdg.o(i.WWDG_ClearFlag), (12 bytes).
    Removing mdr32f9qx_wwdg.o(i.WWDG_DeInit), (16 bytes).
    Removing mdr32f9qx_wwdg.o(i.WWDG_Enable), (16 bytes).
    Removing mdr32f9qx_wwdg.o(i.WWDG_EnableIT), (20 bytes).
    Removing mdr32f9qx_wwdg.o(i.WWDG_GetCounter), (16 bytes).
    Removing mdr32f9qx_wwdg.o(i.WWDG_GetFlagStatus), (12 bytes).
    Removing mdr32f9qx_wwdg.o(i.WWDG_GetPrescaler), (16 bytes).
    Removing mdr32f9qx_wwdg.o(i.WWDG_GetWindowValue), (16 bytes).
    Removing mdr32f9qx_wwdg.o(i.WWDG_SetCounter), (16 bytes).
    Removing mdr32f9qx_wwdg.o(i.WWDG_SetPrescaler), (28 bytes).
    Removing mdr32f9qx_wwdg.o(i.WWDG_SetWindowValue), (40 bytes).
    Removing ledind.o(.ARM.exidx), (8 bytes).
    Removing ili9488.o(t._Z4swapItEvRT_S1_), (10 bytes).
    Removing ili9488.o(.ARM.exidx), (8 bytes).

607 unused section(s) (total 28234 bytes) removed from the image.

==============================================================================

Image Symbol Table

    Local Symbols

    Symbol Name                              Value     Ov Type        Size  Object(Section)

    RESET                                    0x00000000   Section      192  startup_mdr1986ve1t.o(RESET)
    ../../../clib/unwind_pr.c                0x00000000   Number         0  unwind_pr0.o ABSOLUTE
    ../../../clib/unwind_pr.c                0x00000000   Number         0  unwind_prcommon.o ABSOLUTE
    ../../../clib/unwinder.c                 0x00000000   Number         0  unwind_activity.o ABSOLUTE
    ../../../clib/unwinder.c                 0x00000000   Number         0  unwinder.o ABSOLUTE
    ../../../clib/unwinder.c                 0x00000000   Number         0  unwind_activity.o ABSOLUTE
    ../../../clib/unwinder.c                 0x00000000   Number         0  unwinder.o ABSOLUTE
    ../../../edgfe/lib_src/arm_exceptions.c  0x00000000   Number         0  arm_exceptions_mem.o ABSOLUTE
    ../../../edgfe/lib_src/arm_exceptions.c  0x00000000   Number         0  arm_exceptions_terminate.o ABSOLUTE
    ../../../edgfe/lib_src/arm_exceptions.c  0x00000000   Number         0  arm_exceptions_support.o ABSOLUTE
    ../../../edgfe/lib_src/arm_exceptions.c  0x00000000   Number         0  arm_exceptions_globs.o ABSOLUTE
    ../../../edgfe/lib_src/arm_exceptions.c  0x00000000   Number         0  arm_exceptions_callterm.o ABSOLUTE
    ../../../edgfe/lib_src/arm_noexceptions.c 0x00000000   Number         0  arm_newhandler_noexceptions.o ABSOLUTE
    ../../../edgfe/lib_src/arm_noexceptions.c 0x00000000   Number         0  arm_callunex_noexceptions.o ABSOLUTE
    ../../../edgfe/lib_src/arm_noexceptions.c 0x00000000   Number         0  arm_begincatch_noexceptions.o ABSOLUTE
    ../../../edgfe/lib_src/bad_alloc.c       0x00000000   Number         0  bad_alloc_dtor.o ABSOLUTE
    ../../../edgfe/lib_src/bad_alloc.c       0x00000000   Number         0  bad_alloc_what.o ABSOLUTE
    ../../../edgfe/lib_src/delete.c          0x00000000   Number         0  delete.o ABSOLUTE
    ../../../edgfe/lib_src/exception.c       0x00000000   Number         0  exception_dtor.o ABSOLUTE
    ../../../edgfe/lib_src/exception.c       0x00000000   Number         0  exception_what.o ABSOLUTE
    ../../../edgfe/lib_src/new.c             0x00000000   Number         0  new.o ABSOLUTE
    ../../../edgfe/lib_src/typeinfo.c        0x00000000   Number         0  lib_rtti_impl.o ABSOLUTE
    ../../../edgfe/lib_src/typeinfo.c        0x00000000   Number         0  type_info_dtor.o ABSOLUTE
    ../clib/angel/boardlib.s                 0x00000000   Number         0  boardshut.o ABSOLUTE
    ../clib/angel/boardlib.s                 0x00000000   Number         0  boardinit3.o ABSOLUTE
    ../clib/angel/boardlib.s                 0x00000000   Number         0  boardinit1.o ABSOLUTE
    ../clib/angel/boardlib.s                 0x00000000   Number         0  boardinit2.o ABSOLUTE
    ../clib/angel/handlers.s                 0x00000000   Number         0  __scatter_zi.o ABSOLUTE
    ../clib/angel/handlers.s                 0x00000000   Number         0  __scatter_copy.o ABSOLUTE
    ../clib/angel/kernel.s                   0x00000000   Number         0  __rtentry.o ABSOLUTE
    ../clib/angel/kernel.s                   0x00000000   Number         0  rtexit2.o ABSOLUTE
    ../clib/angel/kernel.s                   0x00000000   Number         0  rtexit.o ABSOLUTE
    ../clib/angel/kernel.s                   0x00000000   Number         0  __rtentry4.o ABSOLUTE
    ../clib/angel/kernel.s                   0x00000000   Number         0  __rtentry2.o ABSOLUTE
    ../clib/angel/rt.s                       0x00000000   Number         0  rt_eh_globals_addr.o ABSOLUTE
    ../clib/angel/rt.s                       0x00000000   Number         0  rt_raise.o ABSOLUTE
    ../clib/angel/rt.s                       0x00000000   Number         0  rt_errno_addr.o ABSOLUTE
    ../clib/angel/rt.s                       0x00000000   Number         0  rt_new_handler_addr_intlibspace.o ABSOLUTE
    ../clib/angel/rt.s                       0x00000000   Number         0  rt_div0.o ABSOLUTE
    ../clib/angel/rt.s                       0x00000000   Number         0  rt_heap_descriptor.o ABSOLUTE
    ../clib/angel/rt.s                       0x00000000   Number         0  rt_heap_descriptor_intlibspace.o ABSOLUTE
    ../clib/angel/rt.s                       0x00000000   Number         0  rt_errno_addr_intlibspace.o ABSOLUTE
    ../clib/angel/rt.s                       0x00000000   Number         0  aeabi_idiv0.o ABSOLUTE
    ../clib/angel/rt.s                       0x00000000   Number         0  aeabi_idiv0_sigfpe.o ABSOLUTE
    ../clib/angel/rt.s                       0x00000000   Number         0  rt_new_handler_addr.o ABSOLUTE
    ../clib/angel/rt.s                       0x00000000   Number         0  rt_eh_globals_addr_intlibspace.o ABSOLUTE
    ../clib/angel/scatterp.s                 0x00000000   Number         0  __scatter.o ABSOLUTE
    ../clib/angel/startup.s                  0x00000000   Number         0  __main.o ABSOLUTE
    ../clib/angel/sys.s                      0x00000000   Number         0  indicate_semi.o ABSOLUTE
    ../clib/angel/sys.s                      0x00000000   Number         0  use_no_semi.o ABSOLUTE
    ../clib/angel/sys.s                      0x00000000   Number         0  mutex_dummy.o ABSOLUTE
    ../clib/angel/sys.s                      0x00000000   Number         0  libspace.o ABSOLUTE
    ../clib/angel/sys.s                      0x00000000   Number         0  sys_stackheap_outer.o ABSOLUTE
    ../clib/angel/sys.s                      0x00000000   Number         0  tempstk.o ABSOLUTE
    ../clib/angel/sysapp.c                   0x00000000   Number         0  sys_exit.o ABSOLUTE
    ../clib/angel/sysapp.c                   0x00000000   Number         0  sys_command.o ABSOLUTE
    ../clib/angel/sysapp.c                   0x00000000   Number         0  sys_wrch.o ABSOLUTE
    ../clib/armsys.c                         0x00000000   Number         0  no_argv.o ABSOLUTE
    ../clib/armsys.c                         0x00000000   Number         0  argv_veneer.o ABSOLUTE
    ../clib/armsys.c                         0x00000000   Number         0  _get_argv_nomalloc.o ABSOLUTE
    ../clib/armsys.c                         0x00000000   Number         0  _get_argv.o ABSOLUTE
    ../clib/division.s                       0x00000000   Number         0  aeabi_sdiv_div0.o ABSOLUTE
    ../clib/division.s                       0x00000000   Number         0  aeabi_sdiv.o ABSOLUTE
    ../clib/fenv.c                           0x00000000   Number         0  _rserrno.o ABSOLUTE
    ../clib/heap1.c                          0x00000000   Number         0  h1_extend.o ABSOLUTE
    ../clib/heap1.c                          0x00000000   Number         0  h1_extend_mt.o ABSOLUTE
    ../clib/heap1.c                          0x00000000   Number         0  h1_alloc.o ABSOLUTE
    ../clib/heap1.c                          0x00000000   Number         0  h1_alloc_mt.o ABSOLUTE
    ../clib/heap1.c                          0x00000000   Number         0  h1_free_mt.o ABSOLUTE
    ../clib/heap1.c                          0x00000000   Number         0  h1_init_mt.o ABSOLUTE
    ../clib/heap1.c                          0x00000000   Number         0  h1_free.o ABSOLUTE
    ../clib/heap1.c                          0x00000000   Number         0  h1_init.o ABSOLUTE
    ../clib/heap1.c                          0x00000000   Number         0  h1_final_mt.o ABSOLUTE
    ../clib/heap1.c                          0x00000000   Number         0  h1_final.o ABSOLUTE
    ../clib/heap2.c                          0x00000000   Number         0  heap2.o ABSOLUTE
    ../clib/heap2.c                          0x00000000   Number         0  heap2mt.o ABSOLUTE
    ../clib/heap2.c                          0x00000000   Number         0  fdtree.o ABSOLUTE
    ../clib/heapalloc.c                      0x00000000   Number         0  malloc.o ABSOLUTE
    ../clib/heapalloc.c                      0x00000000   Number         0  term_alloc.o ABSOLUTE
    ../clib/heapalloc.c                      0x00000000   Number         0  hrguard.o ABSOLUTE
    ../clib/heapalloc.c                      0x00000000   Number         0  maybetermalloc1.o ABSOLUTE
    ../clib/heapalloc.c                      0x00000000   Number         0  maybetermalloc1.o ABSOLUTE
    ../clib/heapalloc.c                      0x00000000   Number         0  maybetermalloc2.o ABSOLUTE
    ../clib/heapalloc.c                      0x00000000   Number         0  maybetermalloc2.o ABSOLUTE
    ../clib/heapalloc.c                      0x00000000   Number         0  heapstubs.o ABSOLUTE
    ../clib/heapalloc.c                      0x00000000   Number         0  free.o ABSOLUTE
    ../clib/heapalloc.c                      0x00000000   Number         0  init_alloc.o ABSOLUTE
    ../clib/heapalloc.c                      0x00000000   Number         0  hguard.o ABSOLUTE
    ../clib/heapaux.c                        0x00000000   Number         0  heapauxa.o ABSOLUTE
    ../clib/heapaux.c                        0x00000000   Number         0  heapauxi.o ABSOLUTE
    ../clib/libinit.s                        0x00000000   Number         0  libshutdown2.o ABSOLUTE
    ../clib/libinit.s                        0x00000000   Number         0  libinit.o ABSOLUTE
    ../clib/libinit.s                        0x00000000   Number         0  libshutdown.o ABSOLUTE
    ../clib/libinit.s                        0x00000000   Number         0  libinit2.o ABSOLUTE
    ../clib/memcpset.c                       0x00000000   Number         0  rt_memcpy.o ABSOLUTE
    ../clib/memcpset.c                       0x00000000   Number         0  rt_memcpy.o ABSOLUTE
    ../clib/signal.c                         0x00000000   Number         0  __raise.o ABSOLUTE
    ../clib/signal.c                         0x00000000   Number         0  defsig_general.o ABSOLUTE
    ../clib/signal.c                         0x00000000   Number         0  defsig_abrt_inner.o ABSOLUTE
    ../clib/signal.c                         0x00000000   Number         0  defsig_rtred_inner.o ABSOLUTE
    ../clib/signal.c                         0x00000000   Number         0  defsig_stak_inner.o ABSOLUTE
    ../clib/signal.c                         0x00000000   Number         0  defsig_pvfn_inner.o ABSOLUTE
    ../clib/signal.c                         0x00000000   Number         0  defsig_cppl_inner.o ABSOLUTE
    ../clib/signal.c                         0x00000000   Number         0  defsig_segv_inner.o ABSOLUTE
    ../clib/signal.c                         0x00000000   Number         0  defsig_other.o ABSOLUTE
    ../clib/signal.c                         0x00000000   Number         0  defsig_rtmem_inner.o ABSOLUTE
    ../clib/signal.c                         0x00000000   Number         0  defsig_fpe_outer.o ABSOLUTE
    ../clib/signal.c                         0x00000000   Number         0  defsig_fpe_formal.o ABSOLUTE
    ../clib/signal.c                         0x00000000   Number         0  defsig_rtmem_outer.o ABSOLUTE
    ../clib/signal.c                         0x00000000   Number         0  defsig_rtmem_formal.o ABSOLUTE
    ../clib/signal.c                         0x00000000   Number         0  defsig_exit.o ABSOLUTE
    ../clib/signal.c                         0x00000000   Number         0  defsig_abrt_outer.o ABSOLUTE
    ../clib/signal.c                         0x00000000   Number         0  defsig_abrt_formal.o ABSOLUTE
    ../clib/signal.c                         0x00000000   Number         0  defsig_fpe_inner.o ABSOLUTE
    ../clib/signal.s                         0x00000000   Number         0  defsig.o ABSOLUTE
    ../clib/stdlib.c                         0x00000000   Number         0  exit.o ABSOLUTE
    ../clib/stdlib.c                         0x00000000   Number         0  abort.o ABSOLUTE
    ../clib/stdlib.c                         0x00000000   Number         0  bsearchnoex.o ABSOLUTE
    ../fplib/cfplib/cmpret.c                 0x00000000   Number         0  cmpret.o ABSOLUTE
    ../fplib/cfplib/d2f.c                    0x00000000   Number         0  d2f.o ABSOLUTE
    ../fplib/cfplib/daddsub.c                0x00000000   Number         0  daddsub.o ABSOLUTE
    ../fplib/cfplib/dcmpin.c                 0x00000000   Number         0  dcmpin.o ABSOLUTE
    ../fplib/cfplib/ddiv.c                   0x00000000   Number         0  ddiv.o ABSOLUTE
    ../fplib/cfplib/dmul.c                   0x00000000   Number         0  dmul.o ABSOLUTE
    ../fplib/cfplib/dsqrt.c                  0x00000000   Number         0  dsqrt.o ABSOLUTE
    ../fplib/cfplib/fcmpin.c                 0x00000000   Number         0  fcmpin.o ABSOLUTE
    ../fplib/cfplib/ffix.c                   0x00000000   Number         0  dfixui.o ABSOLUTE
    ../fplib/cfplib/ffix.c                   0x00000000   Number         0  ffixi.o ABSOLUTE
    ../fplib/cfplib/ffix.c                   0x00000000   Number         0  ffixui.o ABSOLUTE
    ../fplib/cfplib/fflt.c                   0x00000000   Number         0  dflti.o ABSOLUTE
    ../fplib/cfplib/fflt.c                   0x00000000   Number         0  fflti.o ABSOLUTE
    ../fplib/cfplib/fpinit.c                 0x00000000   Number         0  fpinit.o ABSOLUTE
    ../fplib/cfplib/nan2.c                   0x00000000   Number         0  dnan2.o ABSOLUTE
    ../fplib/cfplib/nan2.c                   0x00000000   Number         0  fnan2.o ABSOLUTE
    ../fplib/cfplib/retnan.c                 0x00000000   Number         0  retnan.o ABSOLUTE
    ../fplib/dleqf6m.s                       0x00000000   Number         0  dlef.o ABSOLUTE
    ../fplib/drleqf6m.s                      0x00000000   Number         0  drlef.o ABSOLUTE
    ../fplib/frleqf6m.s                      0x00000000   Number         0  frlef.o ABSOLUTE
    ../fplib/usenofp.s                       0x00000000   Number         0  usenofp.o ABSOLUTE
    ../mathlib/sqrt.c                        0x00000000   Number         0  sqrt_x.o ABSOLUTE
    ../mathlib/sqrt.c                        0x00000000   Number         0  sqrt.o ABSOLUTE
    ADC\ADC.cpp                              0x00000000   Number         0  adc.o ABSOLUTE
    ADC\\ADC.cpp                             0x00000000   Number         0  adc.o ABSOLUTE
    D:\Keil_v5\ARM\PACK\Keil\MDR1986BExx\2.0.3\Libraries\SPL\MDR32Fx\src\MDR32F9Qx_adc.c 0x00000000   Number         0  mdr32f9qx_adc.o ABSOLUTE
    D:\Keil_v5\ARM\PACK\Keil\MDR1986BExx\2.0.3\Libraries\SPL\MDR32Fx\src\MDR32F9Qx_dma.c 0x00000000   Number         0  mdr32f9qx_dma.o ABSOLUTE
    D:\Keil_v5\ARM\PACK\Keil\MDR1986BExx\2.0.3\Libraries\SPL\MDR32Fx\src\MDR32F9Qx_port.c 0x00000000   Number         0  mdr32f9qx_port.o ABSOLUTE
    D:\Keil_v5\ARM\PACK\Keil\MDR1986BExx\2.0.3\Libraries\SPL\MDR32Fx\src\MDR32F9Qx_rst_clk.c 0x00000000   Number         0  mdr32f9qx_rst_clk.o ABSOLUTE
    D:\Keil_v5\ARM\PACK\Keil\MDR1986BExx\2.0.3\Libraries\SPL\MDR32Fx\src\MDR32F9Qx_ssp.c 0x00000000   Number         0  mdr32f9qx_ssp.o ABSOLUTE
    D:\Keil_v5\ARM\PACK\Keil\MDR1986BExx\2.0.3\Libraries\SPL\MDR32Fx\src\MDR32F9Qx_timer.c 0x00000000   Number         0  mdr32f9qx_timer.o ABSOLUTE
    D:\Keil_v5\ARM\PACK\Keil\MDR1986BExx\2.0.3\Libraries\SPL\MDR32Fx\src\MDR32F9Qx_uart.c 0x00000000   Number         0  mdr32f9qx_uart.o ABSOLUTE
    D:\Keil_v5\ARM\PACK\Keil\MDR1986BExx\2.0.3\Libraries\SPL\MDR32Fx\src\MDR32F9Qx_wwdg.c 0x00000000   Number         0  mdr32f9qx_wwdg.o ABSOLUTE
    D:\\Keil_v5\\ARM\\PACK\\Keil\\MDR1986BExx\\2.0.3\\Libraries\\SPL\\MDR32Fx\\src\\MDR32F9Qx_adc.c 0x00000000   Number         0  mdr32f9qx_adc.o ABSOLUTE
    D:\\Keil_v5\\ARM\\PACK\\Keil\\MDR1986BExx\\2.0.3\\Libraries\\SPL\\MDR32Fx\\src\\MDR32F9Qx_dma.c 0x00000000   Number         0  mdr32f9qx_dma.o ABSOLUTE
    D:\\Keil_v5\\ARM\\PACK\\Keil\\MDR1986BExx\\2.0.3\\Libraries\\SPL\\MDR32Fx\\src\\MDR32F9Qx_port.c 0x00000000   Number         0  mdr32f9qx_port.o ABSOLUTE
    D:\\Keil_v5\\ARM\\PACK\\Keil\\MDR1986BExx\\2.0.3\\Libraries\\SPL\\MDR32Fx\\src\\MDR32F9Qx_rst_clk.c 0x00000000   Number         0  mdr32f9qx_rst_clk.o ABSOLUTE
    D:\\Keil_v5\\ARM\\PACK\\Keil\\MDR1986BExx\\2.0.3\\Libraries\\SPL\\MDR32Fx\\src\\MDR32F9Qx_ssp.c 0x00000000   Number         0  mdr32f9qx_ssp.o ABSOLUTE
    D:\\Keil_v5\\ARM\\PACK\\Keil\\MDR1986BExx\\2.0.3\\Libraries\\SPL\\MDR32Fx\\src\\MDR32F9Qx_timer.c 0x00000000   Number         0  mdr32f9qx_timer.o ABSOLUTE
    D:\\Keil_v5\\ARM\\PACK\\Keil\\MDR1986BExx\\2.0.3\\Libraries\\SPL\\MDR32Fx\\src\\MDR32F9Qx_uart.c 0x00000000   Number         0  mdr32f9qx_uart.o ABSOLUTE
    D:\\Keil_v5\\ARM\\PACK\\Keil\\MDR1986BExx\\2.0.3\\Libraries\\SPL\\MDR32Fx\\src\\MDR32F9Qx_wwdg.c 0x00000000   Number         0  mdr32f9qx_wwdg.o ABSOLUTE
    Delay\\delay.cpp                         0x00000000   Number         0  delay.o ABSOLUTE
    Delay\delay.cpp                          0x00000000   Number         0  delay.o ABSOLUTE
    HEF4051\\hef4051.cpp                     0x00000000   Number         0  hef4051.o ABSOLUTE
    HEF4051\hef4051.cpp                      0x00000000   Number         0  hef4051.o ABSOLUTE
    ILI9488\DefaultFonts.c                   0x00000000   Number         0  defaultfonts.o ABSOLUTE
    ILI9488\ILI9488.cpp                      0x00000000   Number         0  ili9488.o ABSOLUTE
    ILI9488\\ILI9488.cpp                     0x00000000   Number         0  ili9488.o ABSOLUTE
    Interrupt\MDR32F9Qx_it.cpp               0x00000000   Number         0  mdr32f9qx_it.o ABSOLUTE
    Interrupt\\MDR32F9Qx_it.cpp              0x00000000   Number         0  mdr32f9qx_it.o ABSOLUTE
    LedInd\\ledInd.cpp                       0x00000000   Number         0  ledind.o ABSOLUTE
    LedInd\ledInd.cpp                        0x00000000   Number         0  ledind.o ABSOLUTE
    MAX31865\MAX31865.cpp                    0x00000000   Number         0  max31865.o ABSOLUTE
    MAX31865\\MAX31865.cpp                   0x00000000   Number         0  max31865.o ABSOLUTE
    Port\\port.cpp                           0x00000000   Number         0  port.o ABSOLUTE
    Port\port.cpp                            0x00000000   Number         0  port.o ABSOLUTE
    RCC\RCC.cpp                              0x00000000   Number         0  rcc.o ABSOLUTE
    RCC\\RCC.cpp                             0x00000000   Number         0  rcc.o ABSOLUTE
    RTE\Device\MDR1986BE1T\system_MDR1986VE1T.c 0x00000000   Number         0  system_mdr1986ve1t.o ABSOLUTE
    RTE\\Device\\MDR1986BE1T\\startup_MDR1986VE1T.S 0x00000000   Number         0  startup_mdr1986ve1t.o ABSOLUTE
    RTE\\Device\\MDR1986BE1T\\system_MDR1986VE1T.c 0x00000000   Number         0  system_mdr1986ve1t.o ABSOLUTE
    Relay\\relay.cpp                         0x00000000   Number         0  relay.o ABSOLUTE
    Relay\relay.cpp                          0x00000000   Number         0  relay.o ABSOLUTE
    TFT_module\TFT_module.cpp                0x00000000   Number         0  tft_module.o ABSOLUTE
    TFT_module\\TFT_module.cpp               0x00000000   Number         0  tft_module.o ABSOLUTE
    Timers\\timers.cpp                       0x00000000   Number         0  timers.o ABSOLUTE
    Timers\timers.cpp                        0x00000000   Number         0  timers.o ABSOLUTE
    TouchScreen\\touchScreen.cpp             0x00000000   Number         0  touchscreen.o ABSOLUTE
    TouchScreen\touchScreen.cpp              0x00000000   Number         0  touchscreen.o ABSOLUTE
    UART\\uart.cpp                           0x00000000   Number         0  uart.o ABSOLUTE
    UART\uart.cpp                            0x00000000   Number         0  uart.o ABSOLUTE
    W25Qxx\W25Qxx.cpp                        0x00000000   Number         0  w25qxx.o ABSOLUTE
    W25Qxx\\W25Qxx.cpp                       0x00000000   Number         0  w25qxx.o ABSOLUTE
    dc.s                                     0x00000000   Number         0  dc.o ABSOLUTE
    main\\main.cpp                           0x00000000   Number         0  main.o ABSOLUTE
    main\main.cpp                            0x00000000   Number         0  main.o ABSOLUTE
    sensorButton\\sensorButton.cpp           0x00000000   Number         0  sensorbutton.o ABSOLUTE
    sensorButton\sensorButton.cpp            0x00000000   Number         0  sensorbutton.o ABSOLUTE
    spi\\spi.cpp                             0x00000000   Number         0  spi.o ABSOLUTE
    spi\spi.cpp                              0x00000000   Number         0  spi.o ABSOLUTE
    !!!main                                  0x000000c0   Section        8  __main.o(!!!main)
    !!!scatter                               0x000000c8   Section       60  __scatter.o(!!!scatter)
    !!handler_copy                           0x00000104   Section       26  __scatter_copy.o(!!handler_copy)
    !!handler_zi                             0x00000120   Section       28  __scatter_zi.o(!!handler_zi)
    .ARM.Collect$$libinit$$00000000          0x0000013c   Section        2  libinit.o(.ARM.Collect$$libinit$$00000000)
    .ARM.Collect$$libinit$$00000002          0x0000013e   Section        0  libinit2.o(.ARM.Collect$$libinit$$00000002)
    .ARM.Collect$$libinit$$00000004          0x0000013e   Section        0  libinit2.o(.ARM.Collect$$libinit$$00000004)
    .ARM.Collect$$libinit$$00000005          0x0000013e   Section        8  libinit2.o(.ARM.Collect$$libinit$$00000005)
    .ARM.Collect$$libinit$$0000000A          0x00000146   Section        0  libinit2.o(.ARM.Collect$$libinit$$0000000A)
    .ARM.Collect$$libinit$$0000000C          0x00000146   Section        0  libinit2.o(.ARM.Collect$$libinit$$0000000C)
    .ARM.Collect$$libinit$$0000000E          0x00000146   Section        0  libinit2.o(.ARM.Collect$$libinit$$0000000E)
    .ARM.Collect$$libinit$$00000011          0x00000146   Section        0  libinit2.o(.ARM.Collect$$libinit$$00000011)
    .ARM.Collect$$libinit$$00000013          0x00000146   Section        0  libinit2.o(.ARM.Collect$$libinit$$00000013)
    .ARM.Collect$$libinit$$00000015          0x00000146   Section        0  libinit2.o(.ARM.Collect$$libinit$$00000015)
    .ARM.Collect$$libinit$$00000017          0x00000146   Section        0  libinit2.o(.ARM.Collect$$libinit$$00000017)
    .ARM.Collect$$libinit$$00000019          0x00000146   Section        0  libinit2.o(.ARM.Collect$$libinit$$00000019)
    .ARM.Collect$$libinit$$0000001B          0x00000146   Section        0  libinit2.o(.ARM.Collect$$libinit$$0000001B)
    .ARM.Collect$$libinit$$0000001D          0x00000146   Section        0  libinit2.o(.ARM.Collect$$libinit$$0000001D)
    .ARM.Collect$$libinit$$0000001F          0x00000146   Section        0  libinit2.o(.ARM.Collect$$libinit$$0000001F)
    .ARM.Collect$$libinit$$00000021          0x00000146   Section        0  libinit2.o(.ARM.Collect$$libinit$$00000021)
    .ARM.Collect$$libinit$$00000023          0x00000146   Section        0  libinit2.o(.ARM.Collect$$libinit$$00000023)
    .ARM.Collect$$libinit$$00000025          0x00000146   Section        0  libinit2.o(.ARM.Collect$$libinit$$00000025)
    .ARM.Collect$$libinit$$0000002C          0x00000146   Section        0  libinit2.o(.ARM.Collect$$libinit$$0000002C)
    .ARM.Collect$$libinit$$0000002E          0x00000146   Section        0  libinit2.o(.ARM.Collect$$libinit$$0000002E)
    .ARM.Collect$$libinit$$00000030          0x00000146   Section        0  libinit2.o(.ARM.Collect$$libinit$$00000030)
    .ARM.Collect$$libinit$$00000032          0x00000146   Section        0  libinit2.o(.ARM.Collect$$libinit$$00000032)
    .ARM.Collect$$libinit$$00000033          0x00000146   Section        2  libinit2.o(.ARM.Collect$$libinit$$00000033)
    .ARM.Collect$$libshutdown$$00000000      0x00000148   Section        2  libshutdown.o(.ARM.Collect$$libshutdown$$00000000)
    .ARM.Collect$$libshutdown$$00000002      0x0000014a   Section        0  libshutdown2.o(.ARM.Collect$$libshutdown$$00000002)
    .ARM.Collect$$libshutdown$$00000004      0x0000014a   Section        0  libshutdown2.o(.ARM.Collect$$libshutdown$$00000004)
    .ARM.Collect$$libshutdown$$00000007      0x0000014a   Section        0  libshutdown2.o(.ARM.Collect$$libshutdown$$00000007)
    .ARM.Collect$$libshutdown$$0000000A      0x0000014a   Section        0  libshutdown2.o(.ARM.Collect$$libshutdown$$0000000A)
    .ARM.Collect$$libshutdown$$0000000C      0x0000014a   Section        0  libshutdown2.o(.ARM.Collect$$libshutdown$$0000000C)
    .ARM.Collect$$libshutdown$$0000000F      0x0000014a   Section        0  libshutdown2.o(.ARM.Collect$$libshutdown$$0000000F)
    .ARM.Collect$$libshutdown$$00000010      0x0000014a   Section        2  libshutdown2.o(.ARM.Collect$$libshutdown$$00000010)
    .ARM.Collect$$rtentry$$00000000          0x0000014c   Section        0  __rtentry.o(.ARM.Collect$$rtentry$$00000000)
    .ARM.Collect$$rtentry$$00000002          0x0000014c   Section        0  __rtentry2.o(.ARM.Collect$$rtentry$$00000002)
    .ARM.Collect$$rtentry$$00000004          0x0000014c   Section        6  __rtentry4.o(.ARM.Collect$$rtentry$$00000004)
    .ARM.Collect$$rtentry$$00000009          0x00000152   Section        0  __rtentry2.o(.ARM.Collect$$rtentry$$00000009)
    .ARM.Collect$$rtentry$$0000000A          0x00000152   Section        4  __rtentry2.o(.ARM.Collect$$rtentry$$0000000A)
    .ARM.Collect$$rtentry$$0000000C          0x00000156   Section        0  __rtentry2.o(.ARM.Collect$$rtentry$$0000000C)
    .ARM.Collect$$rtentry$$0000000D          0x00000156   Section        8  __rtentry2.o(.ARM.Collect$$rtentry$$0000000D)
    .ARM.Collect$$rtexit$$00000000           0x0000015e   Section        2  rtexit.o(.ARM.Collect$$rtexit$$00000000)
    .ARM.Collect$$rtexit$$00000002           0x00000160   Section        0  rtexit2.o(.ARM.Collect$$rtexit$$00000002)
    .ARM.Collect$$rtexit$$00000003           0x00000160   Section        4  rtexit2.o(.ARM.Collect$$rtexit$$00000003)
    .ARM.Collect$$rtexit$$00000004           0x00000164   Section        6  rtexit2.o(.ARM.Collect$$rtexit$$00000004)
    .emb_text                                0x0000016c   Section       56  rt_memcpy.o(.emb_text)
    .emb_text                                0x000001a4   Section        0  maybetermalloc1.o(.emb_text)
    .text                                    0x000001a4   Section      116  startup_mdr1986ve1t.o(.text)
    .text                                    0x00000218   Section        0  rt_memcpy.o(.text)
    .text                                    0x0000029a   Section      346  aeabi_sdiv.o(.text)
    .text                                    0x000003f4   Section        0  heapauxi.o(.text)
    .text                                    0x000003fc   Section        8  rt_new_handler_addr_intlibspace.o(.text)
    .text                                    0x00000404   Section        0  h1_alloc.o(.text)
    .text                                    0x00000466   Section        0  arm_newhandler_noexceptions.o(.text)
    .text                                    0x00000470   Section        8  libspace.o(.text)
    .text                                    0x00000478   Section        8  rt_heap_descriptor_intlibspace.o(.text)
    .text                                    0x00000480   Section        0  hguard.o(.text)
    .text                                    0x00000484   Section        0  init_alloc.o(.text)
    .text                                    0x0000050c   Section        0  h1_init.o(.text)
    .text                                    0x0000051a   Section        0  h1_free.o(.text)
    .text                                    0x00000566   Section        0  arm_exceptions_terminate.o(.text)
    .text                                    0x00000582   Section       62  sys_stackheap_outer.o(.text)
    .text                                    0x000005c0   Section        0  h1_extend.o(.text)
    .text                                    0x000005f4   Section        0  exit.o(.text)
    .text                                    0x00000604   Section        0  abort.o(.text)
    .text                                    0x00000618   Section        0  defsig_rtmem_outer.o(.text)
    .text                                    0x00000624   Section        0  arm_exceptions_globs.o(.text)
    [local to arm_exceptions_c]::__default_terminate_handler() 0x00000625   Thumb Code     6  arm_exceptions_globs.o(.text)
    .text                                    0x00000678   Section        0  sys_exit.o(.text)
    .text                                    0x00000684   Section        2  use_no_semi.o(.text)
    .text                                    0x00000686   Section        0  indicate_semi.o(.text)
    .text                                    0x00000688   Section        8  rt_eh_globals_addr_intlibspace.o(.text)
    .text                                    0x00000690   Section        0  defsig_exit.o(.text)
    .text                                    0x0000069c   Section        0  defsig_abrt_outer.o(.text)
    .text                                    0x000006a8   Section        0  defsig_rtmem_inner.o(.text)
    .text                                    0x000006f8   Section        0  arm_exceptions_mem.o(.text)
    .text                                    0x0000073a   Section        0  defsig_general.o(.text)
    .text                                    0x00000770   Section        0  defsig_abrt_inner.o(.text)
    .text                                    0x000007a0   Section        0  sys_wrch.o(.text)
    i.ADC_IRQHandler                         0x000007ac   Section        0  mdr32f9qx_it.o(i.ADC_IRQHandler)
    i.CAN1_IRQHandler                        0x000007ae   Section        0  mdr32f9qx_it.o(i.CAN1_IRQHandler)
    i.CAN2_IRQHandler                        0x000007b0   Section        0  mdr32f9qx_it.o(i.CAN2_IRQHandler)
    i.EXT_INT1_IRQHandler                    0x000007b2   Section        0  mdr32f9qx_it.o(i.EXT_INT1_IRQHandler)
    i.EXT_INT2_IRQHandler                    0x000007b4   Section        0  mdr32f9qx_it.o(i.EXT_INT2_IRQHandler)
    i.EXT_INT3_IRQHandler                    0x000007b6   Section        0  mdr32f9qx_it.o(i.EXT_INT3_IRQHandler)
    i.EXT_INT4_IRQHandler                    0x000007b8   Section        0  mdr32f9qx_it.o(i.EXT_INT4_IRQHandler)
    i.HardFault_Handler                      0x000007bc   Section        0  mdr32f9qx_it.o(i.HardFault_Handler)
    i.NMI_Handler                            0x000007dc   Section        0  mdr32f9qx_it.o(i.NMI_Handler)
    i.PORT_Init                              0x000007e0   Section        0  mdr32f9qx_port.o(i.PORT_Init)
    i.PORT_StructInit                        0x000008c4   Section        0  mdr32f9qx_port.o(i.PORT_StructInit)
    i.POWER_IRQHandler                       0x000008e0   Section        0  mdr32f9qx_it.o(i.POWER_IRQHandler)
    i.PendSV_Handler                         0x000008e2   Section        0  mdr32f9qx_it.o(i.PendSV_Handler)
    i.RST_CLK_PCLKcmd                        0x000008e4   Section        0  mdr32f9qx_rst_clk.o(i.RST_CLK_PCLKcmd)
    i.SSP1_IRQHandler                        0x00000904   Section        0  mdr32f9qx_it.o(i.SSP1_IRQHandler)
    i.SSP2_IRQHandler                        0x00000906   Section        0  mdr32f9qx_it.o(i.SSP2_IRQHandler)
    i.SSP_BRGInit                            0x00000908   Section        0  mdr32f9qx_ssp.o(i.SSP_BRGInit)
    i.SSP_Cmd                                0x00000974   Section        0  mdr32f9qx_ssp.o(i.SSP_Cmd)
    i.SSP_GetFlagStatus                      0x00000990   Section        0  mdr32f9qx_ssp.o(i.SSP_GetFlagStatus)
    i.SSP_Init                               0x000009a2   Section        0  mdr32f9qx_ssp.o(i.SSP_Init)
    i.SSP_ReceiveData                        0x000009c8   Section        0  mdr32f9qx_ssp.o(i.SSP_ReceiveData)
    i.SSP_SendData                           0x000009d0   Section        0  mdr32f9qx_ssp.o(i.SSP_SendData)
    i.SSP_StructInit                         0x000009d4   Section        0  mdr32f9qx_ssp.o(i.SSP_StructInit)
    i.SVC_Handler                            0x000009f0   Section        0  mdr32f9qx_it.o(i.SVC_Handler)
    i.SysTick_Handler                        0x000009f4   Section        0  mdr32f9qx_it.o(i.SysTick_Handler)
    i.SystemCoreClockUpdate                  0x00000a0c   Section        0  system_mdr1986ve1t.o(i.SystemCoreClockUpdate)
    i.SystemInit                             0x00000aac   Section        0  system_mdr1986ve1t.o(i.SystemInit)
    i.TIMER1_IRQHandler                      0x00000ad8   Section        0  mdr32f9qx_it.o(i.TIMER1_IRQHandler)
    i.UART1_IRQHandler                       0x00000ada   Section        0  mdr32f9qx_it.o(i.UART1_IRQHandler)
    i.UART2_IRQHandler                       0x00000adc   Section        0  mdr32f9qx_it.o(i.UART2_IRQHandler)
    i.USB_IRQHandler                         0x00000ade   Section        0  mdr32f9qx_it.o(i.USB_IRQHandler)
    i.W25qxx_EraseSector                     0x00000ae0   Section        0  w25qxx.o(i.W25qxx_EraseSector)
    i.W25qxx_Init                            0x00000b78   Section        0  w25qxx.o(i.W25qxx_Init)
    i.W25qxx_PageToSector                    0x00000cd0   Section        0  w25qxx.o(i.W25qxx_PageToSector)
    i.W25qxx_ReadPage                        0x00000ce8   Section        0  w25qxx.o(i.W25qxx_ReadPage)
    i.W25qxx_ResetChip                       0x00000dd4   Section        0  w25qxx.o(i.W25qxx_ResetChip)
    i.W25qxx_WritePage                       0x00000e28   Section        0  w25qxx.o(i.W25qxx_WritePage)
    i.WWDG_IRQHandler                        0x00000f10   Section        0  mdr32f9qx_it.o(i.WWDG_IRQHandler)
    i._Z10W25qxx_Spih                        0x00000f14   Section        0  w25qxx.o(i._Z10W25qxx_Spih)
    i._Z13W25qxx_ReadIDv                     0x00000f40   Section        0  w25qxx.o(i._Z13W25qxx_ReadIDv)
    i._Z15HAL_SPI_ReceiveP15MDR_SSP_TypeDefPhtt 0x00000f90   Section        0  w25qxx.o(i._Z15HAL_SPI_ReceiveP15MDR_SSP_TypeDefPhtt)
    i._Z16HAL_SPI_TransmitP15MDR_SSP_TypeDefPhtt 0x00000fcc   Section        0  w25qxx.o(i._Z16HAL_SPI_TransmitP15MDR_SSP_TypeDefPhtt)
    i._Z16NVIC_SetPriority4IRQnj             0x00001010   Section        0  delay.o(i._Z16NVIC_SetPriority4IRQnj)
    NVIC_SetPriority(IRQn, unsigned)         0x00001011   Thumb Code   110  delay.o(i._Z16NVIC_SetPriority4IRQnj)
    i._Z17W25qxx_ReadUniqIDv                 0x00001088   Section        0  w25qxx.o(i._Z17W25qxx_ReadUniqIDv)
    i._Z18W25qxx_WriteEnablev                0x000010d8   Section        0  w25qxx.o(i._Z18W25qxx_WriteEnablev)
    i._Z21W25qxx_SPI_EnableSS_mP16MDR_PORT_TypeDeft 0x00001108   Section        0  w25qxx.o(i._Z21W25qxx_SPI_EnableSS_mP16MDR_PORT_TypeDeft)
    i._Z22W25qxx_SPI_DisableSS_mP16MDR_PORT_TypeDeft 0x00001114   Section        0  w25qxx.o(i._Z22W25qxx_SPI_DisableSS_mP16MDR_PORT_TypeDeft)
    i._Z22W25qxx_WaitForWriteEndv            0x00001120   Section        0  w25qxx.o(i._Z22W25qxx_WaitForWriteEndv)
    i._Z25W25qxx_ReadStatusRegisterh         0x00001178   Section        0  w25qxx.o(i._Z25W25qxx_ReadStatusRegisterh)
    i._ZN3SPI4initEh                         0x000011e0   Section        0  spi.o(i._ZN3SPI4initEh)
    i._ZN3SPI8initPortEP16MDR_PORT_TypeDefttt17PORT_FUNC_TypeDef 0x00001288   Section        0  spi.o(i._ZN3SPI8initPortEP16MDR_PORT_TypeDefttt17PORT_FUNC_TypeDef)
    i._ZN3SPIC1EP15MDR_SSP_TypeDefP16MDR_PORT_TypeDefttth17PORT_FUNC_TypeDef 0x00001320   Section        0  spi.o(i._ZN3SPIC1EP15MDR_SSP_TypeDefP16MDR_PORT_TypeDefttth17PORT_FUNC_TypeDef)
    i._ZN5DELAY8delay_msEj                   0x00001354   Section        0  delay.o(i._ZN5DELAY8delay_msEj)
    i._ZN5DELAY9delayInitEv                  0x00001368   Section        0  delay.o(i._ZN5DELAY9delayInitEv)
    i._ZN5DELAYC1Ev                          0x000013b0   Section        0  delay.o(i._ZN5DELAYC1Ev)
    i._ZN9PortMapIO10enablePortEv            0x000013c8   Section        0  port.o(i._ZN9PortMapIO10enablePortEv)
    i._ZN9PortMapIO11fullInitPinE15PORT_OE_TypeDef20PORT_PULL_UP_TypeDef22PORT_PULL_DOWN_TypeDef19PORT_PD_SHM_TypeDef15PORT_PD_TypeDef17PORT_GFEN_TypeDef17PORT_FUNC_TypeDef18PORT_SPEED_TypeDef17PORT_MODE_TypeDef 0x00001448   Section        0  port.o(i._ZN9PortMapIO11fullInitPinE15PORT_OE_TypeDef20PORT_PULL_UP_TypeDef22PORT_PULL_DOWN_TypeDef19PORT_PD_SHM_TypeDef15PORT_PD_TypeDef17PORT_GFEN_TypeDef17PORT_FUNC_TypeDef18PORT_SPEED_TypeDef17PORT_MODE_TypeDef)
    i._ZN9PortMapIO4initEv                   0x00001486   Section        0  port.o(i._ZN9PortMapIO4initEv)
    i._ZN9PortMapIOC1EP16MDR_PORT_TypeDeft   0x000014c8   Section        0  port.o(i._ZN9PortMapIOC1EP16MDR_PORT_TypeDeft)
    i._ZN9PortMapIOC1EP16MDR_PORT_TypeDeft15PORT_OE_TypeDef20PORT_PULL_UP_TypeDef22PORT_PULL_DOWN_TypeDef19PORT_PD_SHM_TypeDef15PORT_PD_TypeDef17PORT_GFEN_TypeDef17PORT_FUNC_TypeDef18PORT_SPEED_TypeDef17PORT_MODE_TypeDef 0x000014de   Section        0  port.o(i._ZN9PortMapIOC1EP16MDR_PORT_TypeDeft15PORT_OE_TypeDef20PORT_PULL_UP_TypeDef22PORT_PULL_DOWN_TypeDef19PORT_PD_SHM_TypeDef15PORT_PD_TypeDef17PORT_GFEN_TypeDef17PORT_FUNC_TypeDef18PORT_SPEED_TypeDef17PORT_MODE_TypeDef)
    i._ZN9PortMapIOC1Ev                      0x0000151e   Section        0  port.o(i._ZN9PortMapIOC1Ev)
    i._Znwj                                  0x00001520   Section        0  new.o(i._Znwj)
    i.__ARM_common_switch8                   0x00001548   Section        0  ledind.o(i.__ARM_common_switch8)
    i.main                                   0x00001564   Section        0  main.o(i.main)
    .data                                    0x20000000   Section       17  main.o(.data)
    .data                                    0x20000014   Section        4  delay.o(.data)
    .data                                    0x20000018   Section        4  system_mdr1986ve1t.o(.data)
    .bss                                     0x2000001c   Section      768  main.o(.bss)
    .bss                                     0x2000031c   Section     1064  w25qxx.o(.bss)
    .bss                                     0x20000744   Section       96  libspace.o(.bss)
    HEAP                                     0x200007a8   Section     4096  startup_mdr1986ve1t.o(HEAP)
    Heap_Mem                                 0x200007a8   Data        4096  startup_mdr1986ve1t.o(HEAP)
    STACK                                    0x200017a8   Section     4096  startup_mdr1986ve1t.o(STACK)
    Stack_Mem                                0x200017a8   Data        4096  startup_mdr1986ve1t.o(STACK)
    __initial_sp                             0x200027a8   Data           0  startup_mdr1986ve1t.o(STACK)

    Global Symbols

    Symbol Name                              Value     Ov Type        Size  Object(Section)

    BuildAttributes$$THM_ISAv3M$S$PE$A:L22$X:L11$S22$IEEE1$IW$USESV6$~STKCKD$USESV7$~SHL$OTIME$ROPI$IEEEJ$EBA8$UX$STANDARDLIB$REQ8$PRES8$EABIv2 0x00000000   Number         0  anon$$obj.o ABSOLUTE
    __ARM_use_no_argv                        0x00000000   Number         0  main.o ABSOLUTE
    __Vectors                                0x00000000   Data           4  startup_mdr1986ve1t.o(RESET)
    SHT$$ARM_EXIDX$$Base                      - Undefined Reference
    SHT$$ARM_EXIDX$$Limit                     - Undefined Reference
    __ARM::default_unexpected_handler()       - Undefined Weak Reference
    __ARM_exceptions_buffer_required          - Undefined Weak Reference
    __ARM_exceptions_init                     - Undefined Weak Reference
    __aeabi_unwind_cpp_pr1                    - Undefined Weak Reference
    __aeabi_unwind_cpp_pr2                    - Undefined Weak Reference
    __alloca_initialize                       - Undefined Weak Reference
    __arm_preinit_                            - Undefined Weak Reference
    __cpp_initialize__aeabi_                  - Undefined Weak Reference
    __cxa_begin_cleanup                       - Undefined Weak Reference
    __cxa_finalize                            - Undefined Weak Reference
    __cxa_type_match                          - Undefined Weak Reference
    __rt_locale                               - Undefined Weak Reference
    __sigvec_lookup                           - Undefined Weak Reference
    __user_heap_extent                        - Undefined Weak Reference
    _atexit_init                              - Undefined Weak Reference
    _call_atexit_fns                          - Undefined Weak Reference
    _clock_init                               - Undefined Weak Reference
    _fp_trap_init                             - Undefined Weak Reference
    _fp_trap_shutdown                         - Undefined Weak Reference
    _get_lc_collate                           - Undefined Weak Reference
    _get_lc_ctype                             - Undefined Weak Reference
    _get_lc_monetary                          - Undefined Weak Reference
    _get_lc_numeric                           - Undefined Weak Reference
    _get_lc_time                              - Undefined Weak Reference
    _getenv_init                              - Undefined Weak Reference
    _handle_redirection                       - Undefined Weak Reference
    _initio                                   - Undefined Weak Reference
    _mutex_acquire                            - Undefined Weak Reference
    _mutex_free                               - Undefined Weak Reference
    _mutex_release                            - Undefined Weak Reference
    _rand_init                                - Undefined Weak Reference
    _signal_finish                            - Undefined Weak Reference
    _signal_init                              - Undefined Weak Reference
    _terminateio                              - Undefined Weak Reference
    __main                                   0x000000c1   Thumb Code     8  __main.o(!!!main)
    __scatterload                            0x000000c9   Thumb Code     0  __scatter.o(!!!scatter)
    __scatterload_rt2                        0x000000c9   Thumb Code    52  __scatter.o(!!!scatter)
    __scatterload_rt2_thumb_only             0x000000c9   Thumb Code     0  __scatter.o(!!!scatter)
    __scatterload_null                       0x000000d9   Thumb Code     0  __scatter.o(!!!scatter)
    __scatterload_copy                       0x00000105   Thumb Code    26  __scatter_copy.o(!!handler_copy)
    __scatterload_zeroinit                   0x00000121   Thumb Code    28  __scatter_zi.o(!!handler_zi)
    __rt_lib_init                            0x0000013d   Thumb Code     0  libinit.o(.ARM.Collect$$libinit$$00000000)
    __rt_lib_init_fp_1                       0x0000013f   Thumb Code     0  libinit2.o(.ARM.Collect$$libinit$$00000002)
    __rt_lib_init_heap_2                     0x0000013f   Thumb Code     0  libinit2.o(.ARM.Collect$$libinit$$00000005)
    __rt_lib_init_preinit_1                  0x0000013f   Thumb Code     0  libinit2.o(.ARM.Collect$$libinit$$00000004)
    __rt_lib_init_alloca_1                   0x00000147   Thumb Code     0  libinit2.o(.ARM.Collect$$libinit$$0000002E)
    __rt_lib_init_argv_1                     0x00000147   Thumb Code     0  libinit2.o(.ARM.Collect$$libinit$$0000002C)
    __rt_lib_init_atexit_1                   0x00000147   Thumb Code     0  libinit2.o(.ARM.Collect$$libinit$$0000001B)
    __rt_lib_init_clock_1                    0x00000147   Thumb Code     0  libinit2.o(.ARM.Collect$$libinit$$00000021)
    __rt_lib_init_cpp_1                      0x00000147   Thumb Code     0  libinit2.o(.ARM.Collect$$libinit$$00000032)
    __rt_lib_init_exceptions_1               0x00000147   Thumb Code     0  libinit2.o(.ARM.Collect$$libinit$$00000030)
    __rt_lib_init_fp_trap_1                  0x00000147   Thumb Code     0  libinit2.o(.ARM.Collect$$libinit$$0000001F)
    __rt_lib_init_getenv_1                   0x00000147   Thumb Code     0  libinit2.o(.ARM.Collect$$libinit$$00000023)
    __rt_lib_init_heap_1                     0x00000147   Thumb Code     0  libinit2.o(.ARM.Collect$$libinit$$0000000A)
    __rt_lib_init_lc_collate_1               0x00000147   Thumb Code     0  libinit2.o(.ARM.Collect$$libinit$$00000011)
    __rt_lib_init_lc_ctype_1                 0x00000147   Thumb Code     0  libinit2.o(.ARM.Collect$$libinit$$00000013)
    __rt_lib_init_lc_monetary_1              0x00000147   Thumb Code     0  libinit2.o(.ARM.Collect$$libinit$$00000015)
    __rt_lib_init_lc_numeric_1               0x00000147   Thumb Code     0  libinit2.o(.ARM.Collect$$libinit$$00000017)
    __rt_lib_init_lc_time_1                  0x00000147   Thumb Code     0  libinit2.o(.ARM.Collect$$libinit$$00000019)
    __rt_lib_init_rand_1                     0x00000147   Thumb Code     0  libinit2.o(.ARM.Collect$$libinit$$0000000E)
    __rt_lib_init_return                     0x00000147   Thumb Code     0  libinit2.o(.ARM.Collect$$libinit$$00000033)
    __rt_lib_init_signal_1                   0x00000147   Thumb Code     0  libinit2.o(.ARM.Collect$$libinit$$0000001D)
    __rt_lib_init_stdio_1                    0x00000147   Thumb Code     0  libinit2.o(.ARM.Collect$$libinit$$00000025)
    __rt_lib_init_user_alloc_1               0x00000147   Thumb Code     0  libinit2.o(.ARM.Collect$$libinit$$0000000C)
    __rt_lib_shutdown                        0x00000149   Thumb Code     0  libshutdown.o(.ARM.Collect$$libshutdown$$00000000)
    __rt_lib_shutdown_cpp_1                  0x0000014b   Thumb Code     0  libshutdown2.o(.ARM.Collect$$libshutdown$$00000002)
    __rt_lib_shutdown_fp_trap_1              0x0000014b   Thumb Code     0  libshutdown2.o(.ARM.Collect$$libshutdown$$00000007)
    __rt_lib_shutdown_heap_1                 0x0000014b   Thumb Code     0  libshutdown2.o(.ARM.Collect$$libshutdown$$0000000F)
    __rt_lib_shutdown_return                 0x0000014b   Thumb Code     0  libshutdown2.o(.ARM.Collect$$libshutdown$$00000010)
    __rt_lib_shutdown_signal_1               0x0000014b   Thumb Code     0  libshutdown2.o(.ARM.Collect$$libshutdown$$0000000A)
    __rt_lib_shutdown_stdio_1                0x0000014b   Thumb Code     0  libshutdown2.o(.ARM.Collect$$libshutdown$$00000004)
    __rt_lib_shutdown_user_alloc_1           0x0000014b   Thumb Code     0  libshutdown2.o(.ARM.Collect$$libshutdown$$0000000C)
    __rt_entry                               0x0000014d   Thumb Code     0  __rtentry.o(.ARM.Collect$$rtentry$$00000000)
    __rt_entry_presh_1                       0x0000014d   Thumb Code     0  __rtentry2.o(.ARM.Collect$$rtentry$$00000002)
    __rt_entry_sh                            0x0000014d   Thumb Code     0  __rtentry4.o(.ARM.Collect$$rtentry$$00000004)
    __rt_entry_li                            0x00000153   Thumb Code     0  __rtentry2.o(.ARM.Collect$$rtentry$$0000000A)
    __rt_entry_postsh_1                      0x00000153   Thumb Code     0  __rtentry2.o(.ARM.Collect$$rtentry$$00000009)
    __rt_entry_main                          0x00000157   Thumb Code     0  __rtentry2.o(.ARM.Collect$$rtentry$$0000000D)
    __rt_entry_postli_1                      0x00000157   Thumb Code     0  __rtentry2.o(.ARM.Collect$$rtentry$$0000000C)
    __rt_exit                                0x0000015f   Thumb Code     0  rtexit.o(.ARM.Collect$$rtexit$$00000000)
    __rt_exit_ls                             0x00000161   Thumb Code     0  rtexit2.o(.ARM.Collect$$rtexit$$00000003)
    __rt_exit_prels_1                        0x00000161   Thumb Code     0  rtexit2.o(.ARM.Collect$$rtexit$$00000002)
    __rt_exit_exit                           0x00000165   Thumb Code     0  rtexit2.o(.ARM.Collect$$rtexit$$00000004)
    __aeabi_memcpy4                          0x0000016d   Thumb Code    56  rt_memcpy.o(.emb_text)
    __aeabi_memcpy8                          0x0000016d   Thumb Code     0  rt_memcpy.o(.emb_text)
    Reset_Handler                            0x000001a5   Thumb Code     8  startup_mdr1986ve1t.o(.text)
    _maybe_terminate_alloc                   0x000001a5   Thumb Code     0  maybetermalloc1.o(.emb_text)
    MIL_STD_1553B2_IRQHandler                0x000001b7   Thumb Code     2  startup_mdr1986ve1t.o(.text)
    MIL_STD_1553B1_IRQHandler                0x000001b9   Thumb Code     2  startup_mdr1986ve1t.o(.text)
    DMA_IRQHandler                           0x000001c1   Thumb Code     2  startup_mdr1986ve1t.o(.text)
    BUSY_IRQHandler                          0x000001c9   Thumb Code     2  startup_mdr1986ve1t.o(.text)
    ARINC429R_IRQHandler                     0x000001cb   Thumb Code     2  startup_mdr1986ve1t.o(.text)
    TIMER4_IRQHandler                        0x000001d1   Thumb Code     2  startup_mdr1986ve1t.o(.text)
    TIMER2_IRQHandler                        0x000001d5   Thumb Code     2  startup_mdr1986ve1t.o(.text)
    TIMER3_IRQHandler                        0x000001d7   Thumb Code     2  startup_mdr1986ve1t.o(.text)
    ETHERNET_IRQHandler                      0x000001db   Thumb Code     2  startup_mdr1986ve1t.o(.text)
    SSP3_IRQHandler                          0x000001dd   Thumb Code     2  startup_mdr1986ve1t.o(.text)
    ARINC429T1_IRQHandler                    0x000001e1   Thumb Code     2  startup_mdr1986ve1t.o(.text)
    ARINC429T2_IRQHandler                    0x000001e3   Thumb Code     2  startup_mdr1986ve1t.o(.text)
    ARINC429T3_IRQHandler                    0x000001e5   Thumb Code     2  startup_mdr1986ve1t.o(.text)
    ARINC429T4_IRQHandler                    0x000001e7   Thumb Code     2  startup_mdr1986ve1t.o(.text)
    BKP_IRQHandler                           0x000001e9   Thumb Code     2  startup_mdr1986ve1t.o(.text)
    __user_initial_stackheap                 0x000001f5   Thumb Code     0  startup_mdr1986ve1t.o(.text)
    __aeabi_memcpy                           0x00000219   Thumb Code   130  rt_memcpy.o(.text)
    __rt_memcpy                              0x00000219   Thumb Code     0  rt_memcpy.o(.text)
    __aeabi_uidiv                            0x0000029b   Thumb Code     0  aeabi_sdiv.o(.text)
    __aeabi_uidivmod                         0x0000029b   Thumb Code    20  aeabi_sdiv.o(.text)
    __aeabi_idiv                             0x000002af   Thumb Code     0  aeabi_sdiv.o(.text)
    __aeabi_idivmod                          0x000002af   Thumb Code   326  aeabi_sdiv.o(.text)
    __use_two_region_memory                  0x000003f5   Thumb Code     2  heapauxi.o(.text)
    __rt_heap_escrow                         0x000003f7   Thumb Code     2  heapauxi.o(.text)
    __rt_heap_expand                         0x000003f9   Thumb Code     2  heapauxi.o(.text)
    __rt_new_handler_addr                    0x000003fd   Thumb Code     8  rt_new_handler_addr_intlibspace.o(.text)
    malloc                                   0x00000405   Thumb Code    98  h1_alloc.o(.text)
    __default_new_handler()                  0x00000467   Thumb Code     8  arm_newhandler_noexceptions.o(.text)
    __user_libspace                          0x00000471   Thumb Code     8  libspace.o(.text)
    __user_perproc_libspace                  0x00000471   Thumb Code     0  libspace.o(.text)
    __user_perthread_libspace                0x00000471   Thumb Code     0  libspace.o(.text)
    __rt_heap_descriptor                     0x00000479   Thumb Code     8  rt_heap_descriptor_intlibspace.o(.text)
    __use_no_heap                            0x00000481   Thumb Code     2  hguard.o(.text)
    __heap$guard                             0x00000483   Thumb Code     2  hguard.o(.text)
    _terminate_user_alloc                    0x00000485   Thumb Code     2  init_alloc.o(.text)
    _init_user_alloc                         0x00000487   Thumb Code     2  init_alloc.o(.text)
    __Heap_Full                              0x00000489   Thumb Code    32  init_alloc.o(.text)
    __Heap_Broken                            0x000004a9   Thumb Code    10  init_alloc.o(.text)
    _init_alloc                              0x000004b3   Thumb Code    90  init_alloc.o(.text)
    __Heap_Initialize                        0x0000050d   Thumb Code    10  h1_init.o(.text)
    __Heap_DescSize                          0x00000517   Thumb Code     4  h1_init.o(.text)
    free                                     0x0000051b   Thumb Code    76  h1_free.o(.text)
    std::terminate()                         0x00000567   Thumb Code    28  arm_exceptions_terminate.o(.text)
    __user_setup_stackheap                   0x00000583   Thumb Code    62  sys_stackheap_outer.o(.text)
    __Heap_ProvideMemory                     0x000005c1   Thumb Code    52  h1_extend.o(.text)
    exit                                     0x000005f5   Thumb Code    16  exit.o(.text)
    abort                                    0x00000605   Thumb Code    20  abort.o(.text)
    __rt_SIGRTMEM                            0x00000619   Thumb Code    12  defsig_rtmem_outer.o(.text)
    __cxa_get_globals                        0x0000062b   Thumb Code    66  arm_exceptions_globs.o(.text)
    _sys_exit                                0x00000679   Thumb Code     8  sys_exit.o(.text)
    __I$use$semihosting                      0x00000685   Thumb Code     0  use_no_semi.o(.text)
    __use_no_semihosting_swi                 0x00000685   Thumb Code     2  use_no_semi.o(.text)
    __semihosting_library_function           0x00000687   Thumb Code     0  indicate_semi.o(.text)
    __rt_eh_globals_addr                     0x00000689   Thumb Code     8  rt_eh_globals_addr_intlibspace.o(.text)
    __sig_exit                               0x00000691   Thumb Code    12  defsig_exit.o(.text)
    __rt_SIGABRT                             0x0000069d   Thumb Code    12  defsig_abrt_outer.o(.text)
    __rt_SIGRTMEM_inner                      0x000006a9   Thumb Code    22  defsig_rtmem_inner.o(.text)
    __ARM_exceptions_buffer_init             0x000006f9   Thumb Code    18  arm_exceptions_mem.o(.text)
    __ARM_exceptions_buffer_allocate         0x0000070b   Thumb Code    26  arm_exceptions_mem.o(.text)
    __ARM_exceptions_buffer_free             0x00000725   Thumb Code    22  arm_exceptions_mem.o(.text)
    __default_signal_display                 0x0000073b   Thumb Code    52  defsig_general.o(.text)
    __rt_SIGABRT_inner                       0x00000771   Thumb Code    14  defsig_abrt_inner.o(.text)
    _ttywrch                                 0x000007a1   Thumb Code    12  sys_wrch.o(.text)
    ADC_IRQHandler                           0x000007ad   Thumb Code     2  mdr32f9qx_it.o(i.ADC_IRQHandler)
    CAN1_IRQHandler                          0x000007af   Thumb Code     2  mdr32f9qx_it.o(i.CAN1_IRQHandler)
    CAN2_IRQHandler                          0x000007b1   Thumb Code     2  mdr32f9qx_it.o(i.CAN2_IRQHandler)
    EXT_INT1_IRQHandler                      0x000007b3   Thumb Code     2  mdr32f9qx_it.o(i.EXT_INT1_IRQHandler)
    EXT_INT2_IRQHandler                      0x000007b5   Thumb Code     2  mdr32f9qx_it.o(i.EXT_INT2_IRQHandler)
    EXT_INT3_IRQHandler                      0x000007b7   Thumb Code     2  mdr32f9qx_it.o(i.EXT_INT3_IRQHandler)
    EXT_INT4_IRQHandler                      0x000007b9   Thumb Code     2  mdr32f9qx_it.o(i.EXT_INT4_IRQHandler)
    HardFault_Handler                        0x000007bd   Thumb Code    22  mdr32f9qx_it.o(i.HardFault_Handler)
    NMI_Handler                              0x000007dd   Thumb Code     2  mdr32f9qx_it.o(i.NMI_Handler)
    PORT_Init                                0x000007e1   Thumb Code   222  mdr32f9qx_port.o(i.PORT_Init)
    PORT_StructInit                          0x000008c5   Thumb Code    28  mdr32f9qx_port.o(i.PORT_StructInit)
    POWER_IRQHandler                         0x000008e1   Thumb Code     2  mdr32f9qx_it.o(i.POWER_IRQHandler)
    PendSV_Handler                           0x000008e3   Thumb Code     2  mdr32f9qx_it.o(i.PendSV_Handler)
    RST_CLK_PCLKcmd                          0x000008e5   Thumb Code    28  mdr32f9qx_rst_clk.o(i.RST_CLK_PCLKcmd)
    SSP1_IRQHandler                          0x00000905   Thumb Code     2  mdr32f9qx_it.o(i.SSP1_IRQHandler)
    SSP2_IRQHandler                          0x00000907   Thumb Code     2  mdr32f9qx_it.o(i.SSP2_IRQHandler)
    SSP_BRGInit                              0x00000909   Thumb Code    90  mdr32f9qx_ssp.o(i.SSP_BRGInit)
    SSP_Cmd                                  0x00000975   Thumb Code    24  mdr32f9qx_ssp.o(i.SSP_Cmd)
    SSP_GetFlagStatus                        0x00000991   Thumb Code    18  mdr32f9qx_ssp.o(i.SSP_GetFlagStatus)
    SSP_Init                                 0x000009a3   Thumb Code    38  mdr32f9qx_ssp.o(i.SSP_Init)
    SSP_ReceiveData                          0x000009c9   Thumb Code     8  mdr32f9qx_ssp.o(i.SSP_ReceiveData)
    SSP_SendData                             0x000009d1   Thumb Code     4  mdr32f9qx_ssp.o(i.SSP_SendData)
    SSP_StructInit                           0x000009d5   Thumb Code    28  mdr32f9qx_ssp.o(i.SSP_StructInit)
    SVC_Handler                              0x000009f1   Thumb Code     2  mdr32f9qx_it.o(i.SVC_Handler)
    SysTick_Handler                          0x000009f5   Thumb Code    20  mdr32f9qx_it.o(i.SysTick_Handler)
    SystemCoreClockUpdate                    0x00000a0d   Thumb Code   142  system_mdr1986ve1t.o(i.SystemCoreClockUpdate)
    SystemInit                               0x00000aad   Thumb Code    38  system_mdr1986ve1t.o(i.SystemInit)
    TIMER1_IRQHandler                        0x00000ad9   Thumb Code     2  mdr32f9qx_it.o(i.TIMER1_IRQHandler)
    UART1_IRQHandler                         0x00000adb   Thumb Code     2  mdr32f9qx_it.o(i.UART1_IRQHandler)
    UART2_IRQHandler                         0x00000add   Thumb Code     2  mdr32f9qx_it.o(i.UART2_IRQHandler)
    USB_IRQHandler                           0x00000adf   Thumb Code     2  mdr32f9qx_it.o(i.USB_IRQHandler)
    W25qxx_EraseSector                       0x00000ae1   Thumb Code   140  w25qxx.o(i.W25qxx_EraseSector)
    W25qxx_Init                              0x00000b79   Thumb Code   328  w25qxx.o(i.W25qxx_Init)
    W25qxx_PageToSector                      0x00000cd1   Thumb Code    20  w25qxx.o(i.W25qxx_PageToSector)
    W25qxx_ReadPage                          0x00000ce9   Thumb Code   214  w25qxx.o(i.W25qxx_ReadPage)
    W25qxx_ResetChip                         0x00000dd5   Thumb Code    76  w25qxx.o(i.W25qxx_ResetChip)
    W25qxx_WritePage                         0x00000e29   Thumb Code   214  w25qxx.o(i.W25qxx_WritePage)
    WWDG_IRQHandler                          0x00000f11   Thumb Code     2  mdr32f9qx_it.o(i.WWDG_IRQHandler)
    W25qxx_Spi(unsigned char)                0x00000f15   Thumb Code    38  w25qxx.o(i._Z10W25qxx_Spih)
    W25qxx_ReadID()                          0x00000f41   Thumb Code    74  w25qxx.o(i._Z13W25qxx_ReadIDv)
    HAL_SPI_Receive(MDR_SSP_TypeDef*, unsigned char*, unsigned short, unsigned short) 0x00000f91   Thumb Code    56  w25qxx.o(i._Z15HAL_SPI_ReceiveP15MDR_SSP_TypeDefPhtt)
    HAL_SPI_Transmit(MDR_SSP_TypeDef*, unsigned char*, unsigned short, unsigned short) 0x00000fcd   Thumb Code    60  w25qxx.o(i._Z16HAL_SPI_TransmitP15MDR_SSP_TypeDefPhtt)
    W25qxx_ReadUniqID()                      0x00001089   Thumb Code    70  w25qxx.o(i._Z17W25qxx_ReadUniqIDv)
    W25qxx_WriteEnable()                     0x000010d9   Thumb Code    40  w25qxx.o(i._Z18W25qxx_WriteEnablev)
    W25qxx_SPI_EnableSS_m(MDR_PORT_TypeDef*, unsigned short) 0x00001109   Thumb Code    12  w25qxx.o(i._Z21W25qxx_SPI_EnableSS_mP16MDR_PORT_TypeDeft)
    W25qxx_SPI_DisableSS_m(MDR_PORT_TypeDef*, unsigned short) 0x00001115   Thumb Code    12  w25qxx.o(i._Z22W25qxx_SPI_DisableSS_mP16MDR_PORT_TypeDeft)
    W25qxx_WaitForWriteEnd()                 0x00001121   Thumb Code    74  w25qxx.o(i._Z22W25qxx_WaitForWriteEndv)
    W25qxx_ReadStatusRegister(unsigned char) 0x00001179   Thumb Code    96  w25qxx.o(i._Z25W25qxx_ReadStatusRegisterh)
    SPI::init(unsigned char)                 0x000011e1   Thumb Code   158  spi.o(i._ZN3SPI4initEh)
    SPI::initPort(MDR_PORT_TypeDef*, unsigned short, unsigned short, unsigned short, PORT_FUNC_TypeDef) 0x00001289   Thumb Code   152  spi.o(i._ZN3SPI8initPortEP16MDR_PORT_TypeDefttt17PORT_FUNC_TypeDef)
    SPI::SPI(MDR_SSP_TypeDef*, MDR_PORT_TypeDef*, unsigned short, unsigned short, unsigned short, unsigned char, PORT_FUNC_TypeDef) 0x00001321   Thumb Code    52  spi.o(i._ZN3SPIC1EP15MDR_SSP_TypeDefP16MDR_PORT_TypeDefttth17PORT_FUNC_TypeDef)
    SPI::SPI__sub_object(MDR_SSP_TypeDef*, MDR_PORT_TypeDef*, unsigned short, unsigned short, unsigned short, unsigned char, PORT_FUNC_TypeDef) 0x00001321   Thumb Code     0  spi.o(i._ZN3SPIC1EP15MDR_SSP_TypeDefP16MDR_PORT_TypeDefttth17PORT_FUNC_TypeDef)
    DELAY::delay_ms(unsigned)                0x00001355   Thumb Code    16  delay.o(i._ZN5DELAY8delay_msEj)
    DELAY::delayInit()                       0x00001369   Thumb Code    60  delay.o(i._ZN5DELAY9delayInitEv)
    DELAY::DELAY()                           0x000013b1   Thumb Code    20  delay.o(i._ZN5DELAYC1Ev)
    DELAY::DELAY__sub_object()               0x000013b1   Thumb Code     0  delay.o(i._ZN5DELAYC1Ev)
    PortMapIO::enablePort()                  0x000013c9   Thumb Code   102  port.o(i._ZN9PortMapIO10enablePortEv)
    PortMapIO::fullInitPin(PORT_OE_TypeDef, PORT_PULL_UP_TypeDef, PORT_PULL_DOWN_TypeDef, PORT_PD_SHM_TypeDef, PORT_PD_TypeDef, PORT_GFEN_TypeDef, PORT_FUNC_TypeDef, PORT_SPEED_TypeDef, PORT_MODE_TypeDef) 0x00001449   Thumb Code    62  port.o(i._ZN9PortMapIO11fullInitPinE15PORT_OE_TypeDef20PORT_PULL_UP_TypeDef22PORT_PULL_DOWN_TypeDef19PORT_PD_SHM_TypeDef15PORT_PD_TypeDef17PORT_GFEN_TypeDef17PORT_FUNC_TypeDef18PORT_SPEED_TypeDef17PORT_MODE_TypeDef)
    PortMapIO::init()                        0x00001487   Thumb Code    66  port.o(i._ZN9PortMapIO4initEv)
    PortMapIO::PortMapIO(MDR_PORT_TypeDef*, unsigned short) 0x000014c9   Thumb Code    22  port.o(i._ZN9PortMapIOC1EP16MDR_PORT_TypeDeft)
    PortMapIO::PortMapIO__sub_object(MDR_PORT_TypeDef*, unsigned short) 0x000014c9   Thumb Code     0  port.o(i._ZN9PortMapIOC1EP16MDR_PORT_TypeDeft)
    PortMapIO::PortMapIO(MDR_PORT_TypeDef*, unsigned short, PORT_OE_TypeDef, PORT_PULL_UP_TypeDef, PORT_PULL_DOWN_TypeDef, PORT_PD_SHM_TypeDef, PORT_PD_TypeDef, PORT_GFEN_TypeDef, PORT_FUNC_TypeDef, PORT_SPEED_TypeDef, PORT_MODE_TypeDef) 0x000014df   Thumb Code    64  port.o(i._ZN9PortMapIOC1EP16MDR_PORT_TypeDeft15PORT_OE_TypeDef20PORT_PULL_UP_TypeDef22PORT_PULL_DOWN_TypeDef19PORT_PD_SHM_TypeDef15PORT_PD_TypeDef17PORT_GFEN_TypeDef17PORT_FUNC_TypeDef18PORT_SPEED_TypeDef17PORT_MODE_TypeDef)
    PortMapIO::PortMapIO__sub_object(MDR_PORT_TypeDef*, unsigned short, PORT_OE_TypeDef, PORT_PULL_UP_TypeDef, PORT_PULL_DOWN_TypeDef, PORT_PD_SHM_TypeDef, PORT_PD_TypeDef, PORT_GFEN_TypeDef, PORT_FUNC_TypeDef, PORT_SPEED_TypeDef, PORT_MODE_TypeDef) 0x000014df   Thumb Code     0  port.o(i._ZN9PortMapIOC1EP16MDR_PORT_TypeDeft15PORT_OE_TypeDef20PORT_PULL_UP_TypeDef22PORT_PULL_DOWN_TypeDef19PORT_PD_SHM_TypeDef15PORT_PD_TypeDef17PORT_GFEN_TypeDef17PORT_FUNC_TypeDef18PORT_SPEED_TypeDef17PORT_MODE_TypeDef)
    PortMapIO::PortMapIO()                   0x0000151f   Thumb Code     2  port.o(i._ZN9PortMapIOC1Ev)
    PortMapIO::PortMapIO__sub_object()       0x0000151f   Thumb Code     0  port.o(i._ZN9PortMapIOC1Ev)
    operator new(unsigned)                   0x00001521   Thumb Code    36  new.o(i._Znwj)
    __ARM_common_switch8                     0x00001549   Thumb Code    28  ledind.o(i.__ARM_common_switch8)
    main                                     0x00001565   Thumb Code   170  main.o(i.main)
    Region$$Table$$Base                      0x00001638   Number         0  anon$$obj.o(Region$$Table)
    Region$$Table$$Limit                     0x00001658   Number         0  anon$$obj.o(Region$$Table)
    cs_w25qxx                                0x20000000   Data           4  main.o(.data)
    spi                                      0x20000004   Data           4  main.o(.data)
    pause                                    0x20000008   Data           4  main.o(.data)
    a                                        0x2000000c   Data           2  main.o(.data)
    PageStatus                               0x2000000e   Data           1  main.o(.data)
    init1                                    0x2000000f   Data           1  main.o(.data)
    init2                                    0x20000010   Data           1  main.o(.data)
    tickDelay                                0x20000014   Data           4  delay.o(.data)
    SystemCoreClock                          0x20000018   Data           4  system_mdr1986ve1t.o(.data)
    buf1                                     0x2000001c   Data         256  main.o(.bss)
    buf2                                     0x2000011c   Data         512  main.o(.bss)
    w25qxx                                   0x2000031c   Data          40  w25qxx.o(.bss)
    testBuffWritePage                        0x20000344   Data         512  w25qxx.o(.bss)
    testRcvBuf                               0x20000544   Data         512  w25qxx.o(.bss)
    __libspace_start                         0x20000744   Data          96  libspace.o(.bss)
    __temporary_stack_top$libspace           0x200007a4   Data           0  libspace.o(.bss)



==============================================================================

Memory Map of the image

  Image Entry point : 0x000000c1

  Load Region LR_IROM1 (Base: 0x00000000, Size: 0x00001674, Max: 0x00020000, ABSOLUTE)

    Execution Region ER_IROM1 (Exec base: 0x00000000, Load base: 0x00000000, Size: 0x00001658, Max: 0x00020000, ABSOLUTE)

    Exec Addr    Load Addr    Size         Type   Attr      Idx    E Section Name        Object

    0x00000000   0x00000000   0x000000c0   Data   RO         1847    RESET               startup_mdr1986ve1t.o
    0x000000c0   0x000000c0   0x00000008   Code   RO         3173  * !!!main             c_p.l(__main.o)
    0x000000c8   0x000000c8   0x0000003c   Code   RO         3708    !!!scatter          c_p.l(__scatter.o)
    0x00000104   0x00000104   0x0000001a   Code   RO         3710    !!handler_copy      c_p.l(__scatter_copy.o)
    0x0000011e   0x0000011e   0x00000002   PAD
    0x00000120   0x00000120   0x0000001c   Code   RO         3712    !!handler_zi        c_p.l(__scatter_zi.o)
    0x0000013c   0x0000013c   0x00000002   Code   RO         3580    .ARM.Collect$$libinit$$00000000  c_p.l(libinit.o)
    0x0000013e   0x0000013e   0x00000000   Code   RO         3367    .ARM.Collect$$libinit$$00000002  c_p.l(libinit2.o)
    0x0000013e   0x0000013e   0x00000000   Code   RO         3369    .ARM.Collect$$libinit$$00000004  c_p.l(libinit2.o)
    0x0000013e   0x0000013e   0x00000008   Code   RO         3370    .ARM.Collect$$libinit$$00000005  c_p.l(libinit2.o)
    0x00000146   0x00000146   0x00000000   Code   RO         3372    .ARM.Collect$$libinit$$0000000A  c_p.l(libinit2.o)
    0x00000146   0x00000146   0x00000000   Code   RO         3374    .ARM.Collect$$libinit$$0000000C  c_p.l(libinit2.o)
    0x00000146   0x00000146   0x00000000   Code   RO         3376    .ARM.Collect$$libinit$$0000000E  c_p.l(libinit2.o)
    0x00000146   0x00000146   0x00000000   Code   RO         3379    .ARM.Collect$$libinit$$00000011  c_p.l(libinit2.o)
    0x00000146   0x00000146   0x00000000   Code   RO         3381    .ARM.Collect$$libinit$$00000013  c_p.l(libinit2.o)
    0x00000146   0x00000146   0x00000000   Code   RO         3383    .ARM.Collect$$libinit$$00000015  c_p.l(libinit2.o)
    0x00000146   0x00000146   0x00000000   Code   RO         3385    .ARM.Collect$$libinit$$00000017  c_p.l(libinit2.o)
    0x00000146   0x00000146   0x00000000   Code   RO         3387    .ARM.Collect$$libinit$$00000019  c_p.l(libinit2.o)
    0x00000146   0x00000146   0x00000000   Code   RO         3389    .ARM.Collect$$libinit$$0000001B  c_p.l(libinit2.o)
    0x00000146   0x00000146   0x00000000   Code   RO         3391    .ARM.Collect$$libinit$$0000001D  c_p.l(libinit2.o)
    0x00000146   0x00000146   0x00000000   Code   RO         3393    .ARM.Collect$$libinit$$0000001F  c_p.l(libinit2.o)
    0x00000146   0x00000146   0x00000000   Code   RO         3395    .ARM.Collect$$libinit$$00000021  c_p.l(libinit2.o)
    0x00000146   0x00000146   0x00000000   Code   RO         3397    .ARM.Collect$$libinit$$00000023  c_p.l(libinit2.o)
    0x00000146   0x00000146   0x00000000   Code   RO         3399    .ARM.Collect$$libinit$$00000025  c_p.l(libinit2.o)
    0x00000146   0x00000146   0x00000000   Code   RO         3403    .ARM.Collect$$libinit$$0000002C  c_p.l(libinit2.o)
    0x00000146   0x00000146   0x00000000   Code   RO         3405    .ARM.Collect$$libinit$$0000002E  c_p.l(libinit2.o)
    0x00000146   0x00000146   0x00000000   Code   RO         3407    .ARM.Collect$$libinit$$00000030  c_p.l(libinit2.o)
    0x00000146   0x00000146   0x00000000   Code   RO         3409    .ARM.Collect$$libinit$$00000032  c_p.l(libinit2.o)
    0x00000146   0x00000146   0x00000002   Code   RO         3410    .ARM.Collect$$libinit$$00000033  c_p.l(libinit2.o)
    0x00000148   0x00000148   0x00000002   Code   RO         3693    .ARM.Collect$$libshutdown$$00000000  c_p.l(libshutdown.o)
    0x0000014a   0x0000014a   0x00000000   Code   RO         3672    .ARM.Collect$$libshutdown$$00000002  c_p.l(libshutdown2.o)
    0x0000014a   0x0000014a   0x00000000   Code   RO         3674    .ARM.Collect$$libshutdown$$00000004  c_p.l(libshutdown2.o)
    0x0000014a   0x0000014a   0x00000000   Code   RO         3677    .ARM.Collect$$libshutdown$$00000007  c_p.l(libshutdown2.o)
    0x0000014a   0x0000014a   0x00000000   Code   RO         3680    .ARM.Collect$$libshutdown$$0000000A  c_p.l(libshutdown2.o)
    0x0000014a   0x0000014a   0x00000000   Code   RO         3682    .ARM.Collect$$libshutdown$$0000000C  c_p.l(libshutdown2.o)
    0x0000014a   0x0000014a   0x00000000   Code   RO         3685    .ARM.Collect$$libshutdown$$0000000F  c_p.l(libshutdown2.o)
    0x0000014a   0x0000014a   0x00000002   Code   RO         3686    .ARM.Collect$$libshutdown$$00000010  c_p.l(libshutdown2.o)
    0x0000014c   0x0000014c   0x00000000   Code   RO         3210    .ARM.Collect$$rtentry$$00000000  c_p.l(__rtentry.o)
    0x0000014c   0x0000014c   0x00000000   Code   RO         3312    .ARM.Collect$$rtentry$$00000002  c_p.l(__rtentry2.o)
    0x0000014c   0x0000014c   0x00000006   Code   RO         3324    .ARM.Collect$$rtentry$$00000004  c_p.l(__rtentry4.o)
    0x00000152   0x00000152   0x00000000   Code   RO         3314    .ARM.Collect$$rtentry$$00000009  c_p.l(__rtentry2.o)
    0x00000152   0x00000152   0x00000004   Code   RO         3315    .ARM.Collect$$rtentry$$0000000A  c_p.l(__rtentry2.o)
    0x00000156   0x00000156   0x00000000   Code   RO         3317    .ARM.Collect$$rtentry$$0000000C  c_p.l(__rtentry2.o)
    0x00000156   0x00000156   0x00000008   Code   RO         3318    .ARM.Collect$$rtentry$$0000000D  c_p.l(__rtentry2.o)
    0x0000015e   0x0000015e   0x00000002   Code   RO         3617    .ARM.Collect$$rtexit$$00000000  c_p.l(rtexit.o)
    0x00000160   0x00000160   0x00000000   Code   RO         3655    .ARM.Collect$$rtexit$$00000002  c_p.l(rtexit2.o)
    0x00000160   0x00000160   0x00000004   Code   RO         3656    .ARM.Collect$$rtexit$$00000003  c_p.l(rtexit2.o)
    0x00000164   0x00000164   0x00000006   Code   RO         3657    .ARM.Collect$$rtexit$$00000004  c_p.l(rtexit2.o)
    0x0000016a   0x0000016a   0x00000002   PAD
    0x0000016c   0x0000016c   0x00000038   Code   RO         3163    .emb_text           c_p.l(rt_memcpy.o)
    0x000001a4   0x000001a4   0x00000000   Code   RO         3552    .emb_text           c_p.l(maybetermalloc1.o)
    0x000001a4   0x000001a4   0x00000074   Code   RO         1848    .text               startup_mdr1986ve1t.o
    0x00000218   0x00000218   0x00000082   Code   RO         3164    .text               c_p.l(rt_memcpy.o)
    0x0000029a   0x0000029a   0x0000015a   Code   RO         3167    .text               c_p.l(aeabi_sdiv.o)
    0x000003f4   0x000003f4   0x00000006   Code   RO         3171    .text               c_p.l(heapauxi.o)
    0x000003fa   0x000003fa   0x00000002   PAD
    0x000003fc   0x000003fc   0x00000008   Code   RO         3218    .text               c_p.l(rt_new_handler_addr_intlibspace.o)
    0x00000404   0x00000404   0x00000062   Code   RO         3222    .text               c_p.l(h1_alloc.o)
    0x00000466   0x00000466   0x00000008   Code   RO         3281    .text               cpprt_p.l(arm_newhandler_noexceptions.o)
    0x0000046e   0x0000046e   0x00000002   PAD
    0x00000470   0x00000470   0x00000008   Code   RO         3306    .text               c_p.l(libspace.o)
    0x00000478   0x00000478   0x00000008   Code   RO         3331    .text               c_p.l(rt_heap_descriptor_intlibspace.o)
    0x00000480   0x00000480   0x00000004   Code   RO         3338    .text               c_p.l(hguard.o)
    0x00000484   0x00000484   0x00000088   Code   RO         3340    .text               c_p.l(init_alloc.o)
    0x0000050c   0x0000050c   0x0000000e   Code   RO         3346    .text               c_p.l(h1_init.o)
    0x0000051a   0x0000051a   0x0000004c   Code   RO         3348    .text               c_p.l(h1_free.o)
    0x00000566   0x00000566   0x0000001c   Code   RO         3533    .text               cpprt_p.l(arm_exceptions_terminate.o)
    0x00000582   0x00000582   0x0000003e   Code   RO         3547    .text               c_p.l(sys_stackheap_outer.o)
    0x000005c0   0x000005c0   0x00000034   Code   RO         3554    .text               c_p.l(h1_extend.o)
    0x000005f4   0x000005f4   0x00000010   Code   RO         3558    .text               c_p.l(exit.o)
    0x00000604   0x00000604   0x00000014   Code   RO         3560    .text               c_p.l(abort.o)
    0x00000618   0x00000618   0x0000000c   Code   RO         3566    .text               c_p.l(defsig_rtmem_outer.o)
    0x00000624   0x00000624   0x00000054   Code   RO         3597    .text               cpprt_p.l(arm_exceptions_globs.o)
    0x00000678   0x00000678   0x0000000c   Code   RO         3611    .text               c_p.l(sys_exit.o)
    0x00000684   0x00000684   0x00000002   Code   RO         3613    .text               c_p.l(use_no_semi.o)
    0x00000686   0x00000686   0x00000000   Code   RO         3615    .text               c_p.l(indicate_semi.o)
    0x00000686   0x00000686   0x00000002   PAD
    0x00000688   0x00000688   0x00000008   Code   RO         3624    .text               c_p.l(rt_eh_globals_addr_intlibspace.o)
    0x00000690   0x00000690   0x0000000c   Code   RO         3630    .text               c_p.l(defsig_exit.o)
    0x0000069c   0x0000069c   0x0000000c   Code   RO         3632    .text               c_p.l(defsig_abrt_outer.o)
    0x000006a8   0x000006a8   0x00000050   Code   RO         3638    .text               c_p.l(defsig_rtmem_inner.o)
    0x000006f8   0x000006f8   0x00000042   Code   RO         3647    .text               cpprt_p.l(arm_exceptions_mem.o)
    0x0000073a   0x0000073a   0x00000034   Code   RO         3667    .text               c_p.l(defsig_general.o)
    0x0000076e   0x0000076e   0x00000002   PAD
    0x00000770   0x00000770   0x00000030   Code   RO         3669    .text               c_p.l(defsig_abrt_inner.o)
    0x000007a0   0x000007a0   0x0000000c   Code   RO         3687    .text               c_p.l(sys_wrch.o)
    0x000007ac   0x000007ac   0x00000002   Code   RO          967    i.ADC_IRQHandler    mdr32f9qx_it.o
    0x000007ae   0x000007ae   0x00000002   Code   RO          970    i.CAN1_IRQHandler   mdr32f9qx_it.o
    0x000007b0   0x000007b0   0x00000002   Code   RO          971    i.CAN2_IRQHandler   mdr32f9qx_it.o
    0x000007b2   0x000007b2   0x00000002   Code   RO          974    i.EXT_INT1_IRQHandler  mdr32f9qx_it.o
    0x000007b4   0x000007b4   0x00000002   Code   RO          975    i.EXT_INT2_IRQHandler  mdr32f9qx_it.o
    0x000007b6   0x000007b6   0x00000002   Code   RO          976    i.EXT_INT3_IRQHandler  mdr32f9qx_it.o
    0x000007b8   0x000007b8   0x00000002   Code   RO          977    i.EXT_INT4_IRQHandler  mdr32f9qx_it.o
    0x000007ba   0x000007ba   0x00000002   PAD
    0x000007bc   0x000007bc   0x00000020   Code   RO          978    i.HardFault_Handler  mdr32f9qx_it.o
    0x000007dc   0x000007dc   0x00000002   Code   RO          981    i.NMI_Handler       mdr32f9qx_it.o
    0x000007de   0x000007de   0x00000002   PAD
    0x000007e0   0x000007e0   0x000000e4   Code   RO         2192    i.PORT_Init         mdr32f9qx_port.o
    0x000008c4   0x000008c4   0x0000001c   Code   RO         2197    i.PORT_StructInit   mdr32f9qx_port.o
    0x000008e0   0x000008e0   0x00000002   Code   RO          982    i.POWER_IRQHandler  mdr32f9qx_it.o
    0x000008e2   0x000008e2   0x00000002   Code   RO          983    i.PendSV_Handler    mdr32f9qx_it.o
    0x000008e4   0x000008e4   0x00000020   Code   RO         2289    i.RST_CLK_PCLKcmd   mdr32f9qx_rst_clk.o
    0x00000904   0x00000904   0x00000002   Code   RO          984    i.SSP1_IRQHandler   mdr32f9qx_it.o
    0x00000906   0x00000906   0x00000002   Code   RO          985    i.SSP2_IRQHandler   mdr32f9qx_it.o
    0x00000908   0x00000908   0x0000006c   Code   RO         2501    i.SSP_BRGInit       mdr32f9qx_ssp.o
    0x00000974   0x00000974   0x0000001c   Code   RO         2503    i.SSP_Cmd           mdr32f9qx_ssp.o
    0x00000990   0x00000990   0x00000012   Code   RO         2506    i.SSP_GetFlagStatus  mdr32f9qx_ssp.o
    0x000009a2   0x000009a2   0x00000026   Code   RO         2510    i.SSP_Init          mdr32f9qx_ssp.o
    0x000009c8   0x000009c8   0x00000008   Code   RO         2511    i.SSP_ReceiveData   mdr32f9qx_ssp.o
    0x000009d0   0x000009d0   0x00000004   Code   RO         2512    i.SSP_SendData      mdr32f9qx_ssp.o
    0x000009d4   0x000009d4   0x0000001c   Code   RO         2513    i.SSP_StructInit    mdr32f9qx_ssp.o
    0x000009f0   0x000009f0   0x00000002   Code   RO          986    i.SVC_Handler       mdr32f9qx_it.o
    0x000009f2   0x000009f2   0x00000002   PAD
    0x000009f4   0x000009f4   0x00000018   Code   RO          987    i.SysTick_Handler   mdr32f9qx_it.o
    0x00000a0c   0x00000a0c   0x000000a0   Code   RO         1854    i.SystemCoreClockUpdate  system_mdr1986ve1t.o
    0x00000aac   0x00000aac   0x0000002c   Code   RO         1855    i.SystemInit        system_mdr1986ve1t.o
    0x00000ad8   0x00000ad8   0x00000002   Code   RO          988    i.TIMER1_IRQHandler  mdr32f9qx_it.o
    0x00000ada   0x00000ada   0x00000002   Code   RO          991    i.UART1_IRQHandler  mdr32f9qx_it.o
    0x00000adc   0x00000adc   0x00000002   Code   RO          992    i.UART2_IRQHandler  mdr32f9qx_it.o
    0x00000ade   0x00000ade   0x00000002   Code   RO          993    i.USB_IRQHandler    mdr32f9qx_it.o
    0x00000ae0   0x00000ae0   0x00000098   Code   RO         1587    i.W25qxx_EraseSector  w25qxx.o
    0x00000b78   0x00000b78   0x00000158   Code   RO         1588    i.W25qxx_Init       w25qxx.o
    0x00000cd0   0x00000cd0   0x00000018   Code   RO         1593    i.W25qxx_PageToSector  w25qxx.o
    0x00000ce8   0x00000ce8   0x000000ec   Code   RO         1597    i.W25qxx_ReadPage   w25qxx.o
    0x00000dd4   0x00000dd4   0x00000054   Code   RO         1599    i.W25qxx_ResetChip  w25qxx.o
    0x00000e28   0x00000e28   0x000000e8   Code   RO         1604    i.W25qxx_WritePage  w25qxx.o
    0x00000f10   0x00000f10   0x00000002   Code   RO          995    i.WWDG_IRQHandler   mdr32f9qx_it.o
    0x00000f12   0x00000f12   0x00000002   PAD
    0x00000f14   0x00000f14   0x0000002c   Code   RO         1607    i._Z10W25qxx_Spih   w25qxx.o
    0x00000f40   0x00000f40   0x00000050   Code   RO         1608    i._Z13W25qxx_ReadIDv  w25qxx.o
    0x00000f90   0x00000f90   0x0000003c   Code   RO         1609    i._Z15HAL_SPI_ReceiveP15MDR_SSP_TypeDefPhtt  w25qxx.o
    0x00000fcc   0x00000fcc   0x00000044   Code   RO         1610    i._Z16HAL_SPI_TransmitP15MDR_SSP_TypeDefPhtt  w25qxx.o
    0x00001010   0x00001010   0x00000078   Code   RO         1200    i._Z16NVIC_SetPriority4IRQnj  delay.o
    0x00001088   0x00001088   0x00000050   Code   RO         1611    i._Z17W25qxx_ReadUniqIDv  w25qxx.o
    0x000010d8   0x000010d8   0x00000030   Code   RO         1612    i._Z18W25qxx_WriteEnablev  w25qxx.o
    0x00001108   0x00001108   0x0000000c   Code   RO         1614    i._Z21W25qxx_SPI_EnableSS_mP16MDR_PORT_TypeDeft  w25qxx.o
    0x00001114   0x00001114   0x0000000c   Code   RO         1615    i._Z22W25qxx_SPI_DisableSS_mP16MDR_PORT_TypeDeft  w25qxx.o
    0x00001120   0x00001120   0x00000058   Code   RO         1616    i._Z22W25qxx_WaitForWriteEndv  w25qxx.o
    0x00001178   0x00001178   0x00000068   Code   RO         1617    i._Z25W25qxx_ReadStatusRegisterh  w25qxx.o
    0x000011e0   0x000011e0   0x000000a8   Code   RO          133    i._ZN3SPI4initEh    spi.o
    0x00001288   0x00001288   0x00000098   Code   RO          135    i._ZN3SPI8initPortEP16MDR_PORT_TypeDefttt17PORT_FUNC_TypeDef  spi.o
    0x00001320   0x00001320   0x00000034   Code   RO          138    i._ZN3SPIC1EP15MDR_SSP_TypeDefP16MDR_PORT_TypeDefttth17PORT_FUNC_TypeDef  spi.o
    0x00001354   0x00001354   0x00000014   Code   RO         1201    i._ZN5DELAY8delay_msEj  delay.o
    0x00001368   0x00001368   0x00000048   Code   RO         1202    i._ZN5DELAY9delayInitEv  delay.o
    0x000013b0   0x000013b0   0x00000018   Code   RO         1203    i._ZN5DELAYC1Ev     delay.o
    0x000013c8   0x000013c8   0x00000080   Code   RO          314    i._ZN9PortMapIO10enablePortEv  port.o
    0x00001448   0x00001448   0x0000003e   Code   RO          315    i._ZN9PortMapIO11fullInitPinE15PORT_OE_TypeDef20PORT_PULL_UP_TypeDef22PORT_PULL_DOWN_TypeDef19PORT_PD_SHM_TypeDef15PORT_PD_TypeDef17PORT_GFEN_TypeDef17PORT_FUNC_TypeDef18PORT_SPEED_TypeDef17PORT_MODE_TypeDef  port.o
    0x00001486   0x00001486   0x00000042   Code   RO          322    i._ZN9PortMapIO4initEv  port.o
    0x000014c8   0x000014c8   0x00000016   Code   RO          327    i._ZN9PortMapIOC1EP16MDR_PORT_TypeDeft  port.o
    0x000014de   0x000014de   0x00000040   Code   RO          328    i._ZN9PortMapIOC1EP16MDR_PORT_TypeDeft15PORT_OE_TypeDef20PORT_PULL_UP_TypeDef22PORT_PULL_DOWN_TypeDef19PORT_PD_SHM_TypeDef15PORT_PD_TypeDef17PORT_GFEN_TypeDef17PORT_FUNC_TypeDef18PORT_SPEED_TypeDef17PORT_MODE_TypeDef  port.o
    0x0000151e   0x0000151e   0x00000002   Code   RO          329    i._ZN9PortMapIOC1Ev  port.o
    0x00001520   0x00001520   0x00000028   Code   RO         3175    i._Znwj             cpprt_p.l(new.o)
    0x00001548   0x00001548   0x0000001c   Code   RO          260    i.__ARM_common_switch8  ledind.o
    0x00001564   0x00001564   0x000000d4   Code   RO            3    i.main              main.o
    0x00001638   0x00001638   0x00000020   Data   RO         3706    Region$$Table       anon$$obj.o


    Execution Region RW_IRAM1 (Exec base: 0x20000000, Load base: 0x00001658, Size: 0x000027a8, Max: 0x00008000, ABSOLUTE)

    Exec Addr    Load Addr    Size         Type   Attr      Idx    E Section Name        Object

    0x20000000   0x00001658   0x00000011   Data   RW            6    .data               main.o
    0x20000011   0x00001669   0x00000003   PAD
    0x20000014   0x0000166c   0x00000004   Data   RW         1208    .data               delay.o
    0x20000018   0x00001670   0x00000004   Data   RW         1856    .data               system_mdr1986ve1t.o
    0x2000001c        -       0x00000300   Zero   RW            5    .bss                main.o
    0x2000031c        -       0x00000428   Zero   RW         1652    .bss                w25qxx.o
    0x20000744        -       0x00000060   Zero   RW         3307    .bss                c_p.l(libspace.o)
    0x200007a4   0x00001674   0x00000004   PAD
    0x200007a8        -       0x00001000   Zero   RW         1846    HEAP                startup_mdr1986ve1t.o
    0x200017a8        -       0x00001000   Zero   RW         1845    STACK               startup_mdr1986ve1t.o


    Execution Region RW_IRAM2 (Exec base: 0x20100000, Load base: 0x00001674, Size: 0x00000000, Max: 0x00004000, ABSOLUTE)

    **** No section assigned to this execution region ****


==============================================================================

Image component sizes


      Code (inc. data)   RO Data    RW Data    ZI Data      Debug   Object Name

         0          0          0          0          0       1444   defaultfonts.o
       236         30          0          4          0       8392   delay.o
        28          0          0          0          0         76   ledind.o
       212         42          0         17        768      88336   main.o
        92         14          0          0          0      13940   mdr32f9qx_it.o
       256          6          0          0          0       5386   mdr32f9qx_port.o
        32          4          0          0          0        582   mdr32f9qx_rst_clk.o
       232         22          0          0          0       8429   mdr32f9qx_ssp.o
       344         26          0          0          0       5268   port.o
         0          0          0          0          0      73224   sensorbutton.o
       372         10          0          0          0       3196   spi.o
       116         28        192          0       8192       1940   startup_mdr1986ve1t.o
       204         24          0          4          0      76395   system_mdr1986ve1t.o
      1668        156          0          0       1064      11088   w25qxx.o

    ----------------------------------------------------------------------
      3800        362        224         28      10024     297696   Object Totals
         0          0         32          0          0          0   (incl. Generated)
         8          0          0          3          0          0   (incl. Padding)

    ----------------------------------------------------------------------

      Code (inc. data)   RO Data    RW Data    ZI Data      Debug   Library Member Name

         8          0          0          0          0         68   __main.o
         0          0          0          0          0          0   __rtentry.o
        12          0          0          0          0          0   __rtentry2.o
         6          0          0          0          0          0   __rtentry4.o
        60          8          0          0          0          0   __scatter.o
        26          0          0          0          0          0   __scatter_copy.o
        28          0          0          0          0          0   __scatter_zi.o
        20          0          0          0          0         68   abort.o
       346          0          0          0          0         92   aeabi_sdiv.o
        48         34          0          0          0         68   defsig_abrt_inner.o
        12          0          0          0          0         68   defsig_abrt_outer.o
        12          0          0          0          0         68   defsig_exit.o
        52          0          0          0          0         72   defsig_general.o
        80         58          0          0          0         68   defsig_rtmem_inner.o
        12          0          0          0          0         68   defsig_rtmem_outer.o
        16          0          0          0          0         68   exit.o
        98          0          0          0          0         72   h1_alloc.o
        52          0          0          0          0         68   h1_extend.o
        76          0          0          0          0         72   h1_free.o
        14          0          0          0          0         76   h1_init.o
         6          0          0          0          0        136   heapauxi.o
         4          0          0          0          0        120   hguard.o
         0          0          0          0          0          0   indicate_semi.o
       136          0          0          0          0        160   init_alloc.o
         2          0          0          0          0          0   libinit.o
        10          0          0          0          0          0   libinit2.o
         2          0          0          0          0          0   libshutdown.o
         2          0          0          0          0          0   libshutdown2.o
         8          4          0          0         96         68   libspace.o
         0          0          0          0          0          0   maybetermalloc1.o
         8          4          0          0          0         68   rt_eh_globals_addr_intlibspace.o
         8          4          0          0          0         68   rt_heap_descriptor_intlibspace.o
       186          0          0          0          0        144   rt_memcpy.o
         8          4          0          0          0         68   rt_new_handler_addr_intlibspace.o
         2          0          0          0          0          0   rtexit.o
        10          0          0          0          0          0   rtexit2.o
        12          4          0          0          0         60   sys_exit.o
        62          0          0          0          0         80   sys_stackheap_outer.o
        12          0          0          0          0         68   sys_wrch.o
         2          0          0          0          0         68   use_no_semi.o
        84         12          0          0          0         96   arm_exceptions_globs.o
        66          0          0          0          0        100   arm_exceptions_mem.o
        28          0          0          0          0         68   arm_exceptions_terminate.o
         8          0          0          0          0         68   arm_newhandler_noexceptions.o
        40          4          0          0          0         68   new.o

    ----------------------------------------------------------------------
      1696        136          0          0        100       2504   Library Totals
        12          0          0          0          4          0   (incl. Padding)

    ----------------------------------------------------------------------

      Code (inc. data)   RO Data    RW Data    ZI Data      Debug   Library Name

      1458        120          0          0         96       2104   c_p.l
       226         16          0          0          0        400   cpprt_p.l

    ----------------------------------------------------------------------
      1696        136          0          0        100       2504   Library Totals

    ----------------------------------------------------------------------

==============================================================================


      Code (inc. data)   RO Data    RW Data    ZI Data      Debug   

      5496        498        224         28      10124     296328   Grand Totals
      5496        498        224         28      10124     296328   ELF Image Totals
      5496        498        224         28          0          0   ROM Totals

==============================================================================

    Total RO  Size (Code + RO Data)                 5720 (   5.59kB)
    Total RW  Size (RW Data + ZI Data)             10152 (   9.91kB)
    Total ROM Size (Code + RO Data + RW Data)       5748 (   5.61kB)

==============================================================================

